

HI-TECH Software PIC LITE Macro Assembler V9.83 build 10920 
                                                                                               Sun Jan 31 10:44:40 2016

HI-TECH Software Omniscient Code Generator (Lite mode) build 10920
     1  0000                     opt subtitle "HI-TECH Software Omniscient Code Generator (Lite mode) build 10920"
     2                           
     3                           opt pagewidth 120
     4                           
     5                           	opt lm
     6                           
     7                           	processor	16F886
     8                           clrc	macro
     9                           	bcf	3,0
    10  0000                     	endm
    11                           clrz	macro
    12                           	bcf	3,2
    13  0000                     	endm
    14                           setc	macro
    15                           	bsf	3,0
    16  0000                     	endm
    17                           setz	macro
    18                           	bsf	3,2
    19  0000                     	endm
    20                           skipc	macro
    21                           	btfss	3,0
    22  0000                     	endm
    23                           skipz	macro
    24                           	btfss	3,2
    25  0000                     	endm
    26                           skipnc	macro
    27                           	btfsc	3,0
    28  0000                     	endm
    29                           skipnz	macro
    30                           	btfsc	3,2
    31  0000                     	endm
    32  0000                     indf	equ	0
    33  0000                     indf0	equ	0
    34  0002                     pc	equ	2
    35  0002                     pcl	equ	2
    36  0003                     status	equ	3
    37  0004                     fsr	equ	4
    38  0004                     fsr0	equ	4
    39  0001                     c	equ	1
    40  0000                     z	equ	0
    41  000A                     pclath	equ	10
    42                           # 20 "C:\Users\Seba\Documents\Projekt\Bustel\Bustel_Project\Bustel Card v10.0 code v1.7.
                                 1\Main Card V10.0.c"
    43                           	psect config,class=CONFIG,delta=2 ;#
    44                           # 20 "C:\Users\Seba\Documents\Projekt\Bustel\Bustel_Project\Bustel Card v10.0 code v1.7.
                                 1\Main Card V10.0.c"
    45  2007  E014               	dw 0xFFFF & 0xEFFF & 0xF7FF & 0xFBFF & 0xFCFF & 0xFF7F & 0xFFBF & 0xFFDF & 0xFFFF & 0xF
                                 FF7 & 0xFFFC ;#
    46                           	FNCALL	_main,_init
    47                           	FNCALL	_main,_TransiverInit
    48                           	FNCALL	_main,_OperationMode
    49                           	FNCALL	_main,_Mode_0
    50                           	FNCALL	_main,_Mode_1
    51                           	FNCALL	_main,_Mode_2
    52                           	FNCALL	_main,_Mode_4
    53                           	FNCALL	_main,_Mode_5
    54                           	FNCALL	_main,_TransiverToReceive
    55                           	FNCALL	_main,_TransiverReadFIFO
    56                           	FNCALL	_TransiverReadFIFO,_timerFunction
    57                           	FNCALL	_TransiverReadFIFO,_SetRFMode
    58                           	FNCALL	_TransiverReadFIFO,_ReadFIFO
    59                           	FNCALL	_TransiverReadFIFO,_TransmittedDataHandler
    60                           	FNCALL	_TransmittedDataHandler,_strstr
    61                           	FNCALL	_TransmittedDataHandler,_OperationMode
    62                           	FNCALL	_TransmittedDataHandler,_DelayDs
    63                           	FNCALL	_TransmittedDataHandler,_AnalogValue
    64                           	FNCALL	_TransmittedDataHandler,_TransmittString
    65                           	FNCALL	_TransmittedDataHandler,_DarknessCheck
    66                           	FNCALL	_Mode_5,_TransmittString
    67                           	FNCALL	_Mode_5,_LightWithSensController
    68                           	FNCALL	_Mode_4,_TransmittString
    69                           	FNCALL	_Mode_4,_LightWithSensController
    70                           	FNCALL	_TransmittString,_timerFunction
    71                           	FNCALL	_TransmittString,_SetRFMode
    72                           	FNCALL	_TransmittString,_RegisterRead
    73                           	FNCALL	_TransmittString,_RegisterSet
    74                           	FNCALL	_TransmittString,_FindChannel
    75                           	FNCALL	_TransmittString,_WriteFIFO
    76                           	FNCALL	_TransiverToReceive,_timerFunction
    77                           	FNCALL	_TransiverToReceive,_SetRFMode
    78                           	FNCALL	_TransiverToReceive,_RegisterRead
    79                           	FNCALL	_TransiverToReceive,_RegisterSet
    80                           	FNCALL	_TransiverToReceive,_FindChannel
    81                           	FNCALL	_Mode_2,_LightWithSensController
    82                           	FNCALL	_Mode_0,_LightWithSensController
    83                           	FNCALL	_TransiverInit,_RegisterSet
    84                           	FNCALL	_TransiverInit,_RegisterRead
    85                           	FNCALL	_TransiverInit,_FindChannel
    86                           	FNCALL	_TransiverInit,_Blink
    87                           	FNCALL	_TransiverInit,_SetRFMode
    88                           	FNCALL	_LightWithSensController,_DarknessCheck
    89                           	FNCALL	_LightWithSensController,_timerFunction
    90                           	FNCALL	_FindChannel,_RegisterSet
    91                           	FNCALL	_FindChannel,_RegisterRead
    92                           	FNCALL	_FindChannel,_SetRFMode
    93                           	FNCALL	_Mode_1,_DarknessCheck
    94                           	FNCALL	_DarknessCheck,_AnalogValue
    95                           	FNCALL	_SetRFMode,_RegisterRead
    96                           	FNCALL	_SetRFMode,_RegisterSet
    97                           	FNCALL	_Blink,_DelayDs
    98                           	FNCALL	_AnalogValue,_DelayDs
    99                           	FNCALL	_ReadFIFO,_ReadSPI
   100                           	FNCALL	_RegisterRead,_WriteSPI
   101                           	FNCALL	_RegisterRead,_ReadSPI
   102                           	FNCALL	_ReadSPI,_WriteSPI
   103                           	FNCALL	_WriteFIFO,_WriteSPI
   104                           	FNCALL	_strstr,_strlen
   105                           	FNCALL	_strstr,_strncmp
   106                           	FNCALL	_strstr,_strchr
   107                           	FNCALL	_RegisterSet,_WriteSPI
   108                           	FNROOT	_main
   109                           	FNCALL	_tc_int,i1_OperationMode
   110                           	FNCALL	_tc_int,_TimerCounter
   111                           	FNCALL	intlevel1,_tc_int
   112                           	global	intlevel1
   113                           	FNROOT	intlevel1
   114                           	global	_intNumberOfBlinks
   115                           	global	_bValueFromPot
   116                           	global	_chManualDarknessValue
   117                           psect	idataBANK0,class=CODE,space=0,delta=2
   118                           global __pidataBANK0
   119  0BBB                     __pidataBANK0:
   120                           	file	"C:\Users\Seba\Documents\Projekt\Bustel\Bustel_Project\Bustel Card v10.0 code v1.7
                                 .1\Main Card V10.0.c"
   121                           	line	59
   122                           
   123                           ;initializer for _intNumberOfBlinks
   124  0BBB  3458               	retlw	058h
   125  0BBC  3402               	retlw	02h
   126                           
   127                           	line	62
   128                           
   129                           ;initializer for _bValueFromPot
   130  0BBD  3401               	retlw	01h
   131                           	line	63
   132                           
   133                           ;initializer for _chManualDarknessValue
   134  0BBE  3480               	retlw	080h
   135                           	global	_ChannelP
   136                           psect	strings,class=STRING,delta=2
   137                           global __pstrings
   138  0600                     __pstrings:
   139                           ;	global	stringdir,stringtab,__stringbase
   140  0600                     stringtab:
   141                           ;	String table - string pointers are 1 byte each
   142  0600  1BFF               	btfsc	(btemp+1),7
   143  0601  2E0A               	ljmp	stringcode
   144  0602  1383               	bcf	status,7
   145  0603  187F               	btfsc	(btemp+1),0
   146  0604  1783               	bsf	status,7
   147  0605  0800               	movf	indf,w
   148  0606  0A84               	incf fsr
   149  0607  1903               skipnz
   150  0608  0AFF               incf btemp+1
   151  0609  0008               	return
   152  060A                     stringcode:stringdir:
      + 060A                     stringdir:	
   153  060A  3006               movlw high(stringdir)
   154  060B  008A               movwf pclath
   155  060C  0804               movf fsr,w
   156  060D  0A84               incf fsr
   157  060E  0782               	addwf pc
   158  060F                     __stringbase:
   159  060F  3400               	retlw	0
   160                           psect	strings
   161                           	file	"C:\Users\Seba\Documents\Projekt\Bustel\Bustel_Project\Bustel Card v10.0 code v1.7
                                 .1\Main Card V10.0.c"
   162                           	line	70
   163  0610                     _ChannelP:
   164  0610  343F               	retlw	03Fh
   165  0611  3447               	retlw	047h
   166  0612  344F               	retlw	04Fh
   167  0613  3457               	retlw	057h
   168  0614  345F               	retlw	05Fh
   169  0615  3477               	retlw	077h
   170  0616  347E               	retlw	07Eh
   171  0617  347F               	retlw	07Fh
   172  0618  3486               	retlw	086h
   173  0619  3487               	retlw	087h
   174  061A  3437               	retlw	037h
   175  061B  3467               	retlw	067h
   176  061C  346F               	retlw	06Fh
   177                           	global	_ChannelR
   178                           psect	strings
   179                           	file	"C:\Users\Seba\Documents\Projekt\Bustel\Bustel_Project\Bustel Card v10.0 code v1.7
                                 .1\Main Card V10.0.c"
   180                           	line	69
   181  061D                     _ChannelR:
   182  061D  344F               	retlw	04Fh
   183  061E  3459               	retlw	059h
   184  061F  3463               	retlw	063h
   185  0620  346D               	retlw	06Dh
   186  0621  3477               	retlw	077h
   187  0622  3495               	retlw	095h
   188  0623  349F               	retlw	09Fh
   189  0624  349F               	retlw	09Fh
   190  0625  34A9               	retlw	0A9h
   191  0626  34A9               	retlw	0A9h
   192  0627  3445               	retlw	045h
   193  0628  3481               	retlw	081h
   194  0629  348B               	retlw	08Bh
   195                           	global	_ChannelS
   196                           psect	strings
   197                           	file	"C:\Users\Seba\Documents\Projekt\Bustel\Bustel_Project\Bustel Card v10.0 code v1.7
                                 .1\Main Card V10.0.c"
   198                           	line	71
   199  062A                     _ChannelS:
   200  062A  3418               	retlw	018h
   201  062B  341B               	retlw	01Bh
   202  062C  341E               	retlw	01Eh
   203  062D  3421               	retlw	021h
   204  062E  3424               	retlw	024h
   205  062F  342D               	retlw	02Dh
   206  0630  347B               	retlw	07Bh
   207  0631  3430               	retlw	030h
   208  0632  347E               	retlw	07Eh
   209  0633  3433               	retlw	033h
   210  0634  3415               	retlw	015h
   211  0635  3427               	retlw	027h
   212  0636  342A               	retlw	02Ah
   213                           	global	_ChannelP
   214                           	global	_ChannelR
   215                           	global	_ChannelS
   216                           	global	_channelFound
   217                           	global	_intBlinkCycle
   218                           	global	_intDarkCheckIntervall
   219                           	global	_intHalfSecondCounter
   220                           	global	_intMinuteCounter
   221                           	global	_intSecondCounter
   222                           	global	_bChannelFound
   223                           	global	_bDark
   224                           	global	_bTransiverModeReceive
   225                           	global	_ReceivedData
   226                           	global	_intBlinkCounter
   227                           	global	_intClockTimer
   228                           	global	_bTimerComplete
   229                           	global	_TransmittedString
   230                           	global	_ADCON0bits
   231  001F                     _ADCON0bits	set	31
   232                           	global	_ADRESH
   233  001E                     _ADRESH	set	30
   234                           	global	_INTCONbits
   235  000B                     _INTCONbits	set	11
   236                           	global	_PIR1bits
   237  000C                     _PIR1bits	set	12
   238                           	global	_PORTA
   239  0005                     _PORTA	set	5
   240                           	global	_PORTAbits
   241  0005                     _PORTAbits	set	5
   242                           	global	_PORTB
   243  0006                     _PORTB	set	6
   244                           	global	_PORTBbits
   245  0006                     _PORTBbits	set	6
   246                           	global	_PORTC
   247  0007                     _PORTC	set	7
   248                           	global	_PORTCbits
   249  0007                     _PORTCbits	set	7
   250                           	global	_SSPBUF
   251  0013                     _SSPBUF	set	19
   252                           	global	_SSPCONbits
   253  0014                     _SSPCONbits	set	20
   254                           	global	_T1CON
   255  0010                     _T1CON	set	16
   256                           	global	_T1CONbits
   257  0010                     _T1CONbits	set	16
   258                           	global	_TMR1H
   259  000F                     _TMR1H	set	15
   260                           	global	_TMR1L
   261  000E                     _TMR1L	set	14
   262                           	global	_CARRY
   263  0018                     _CARRY	set	24
   264                           	global	_GIE
   265  005F                     _GIE	set	95
   266                           	global	_RBIF
   267  0058                     _RBIF	set	88
   268                           	global	_TMR1IF
   269  0060                     _TMR1IF	set	96
   270                           	global	_TMR1ON
   271  0080                     _TMR1ON	set	128
   272                           	global	_ADCON1bits
   273  009F                     _ADCON1bits	set	159
   274                           	global	_IOCBbits
   275  0096                     _IOCBbits	set	150
   276                           	global	_OPTION_REGbits
   277  0081                     _OPTION_REGbits	set	129
   278                           	global	_OSCCONbits
   279  008F                     _OSCCONbits	set	143
   280                           	global	_PIE1bits
   281  008C                     _PIE1bits	set	140
   282                           	global	_SSPSTATbits
   283  0094                     _SSPSTATbits	set	148
   284                           	global	_TRISA
   285  0085                     _TRISA	set	133
   286                           	global	_TRISB
   287  0086                     _TRISB	set	134
   288                           	global	_TRISC
   289  0087                     _TRISC	set	135
   290                           	global	_WPUBbits
   291  0095                     _WPUBbits	set	149
   292                           	global	_SSPIE
   293  0463                     _SSPIE	set	1123
   294                           	global	_EEADR
   295  010D                     _EEADR	set	269
   296                           	global	_EEDATA
   297  010C                     _EEDATA	set	268
   298                           	global	_ANSEL
   299  0188                     _ANSEL	set	392
   300                           	global	_ANSELH
   301  0189                     _ANSELH	set	393
   302                           	global	_ANSELbits
   303  0188                     _ANSELbits	set	392
   304                           	global	_EECON1
   305  018C                     _EECON1	set	396
   306                           	global	_EECON2
   307  018D                     _EECON2	set	397
   308                           	global	_RD
   309  0C60                     _RD	set	3168
   310                           	global	_WR
   311  0C61                     _WR	set	3169
   312                           	global	_WREN
   313  0C62                     _WREN	set	3170
   314                           	
   315  0637                     STR_9:	
   316  0637  344E               	retlw	78	;'N'
   317  0638  346F               	retlw	111	;'o'
   318  0639  3474               	retlw	116	;'t'
   319  063A  3420               	retlw	32	;' '
   320  063B  3444               	retlw	68	;'D'
   321  063C  3461               	retlw	97	;'a'
   322  063D  3472               	retlw	114	;'r'
   323  063E  346B               	retlw	107	;'k'
   324  063F  3420               	retlw	32	;' '
   325  0640  3420               	retlw	32	;' '
   326  0641  3420               	retlw	32	;' '
   327  0642  3420               	retlw	32	;' '
   328  0643  3420               	retlw	32	;' '
   329  0644  3400               	retlw	0
   330                           psect	strings
   331                           	
   332  0645                     STR_8:	
   333  0645  3449               	retlw	73	;'I'
   334  0646  3474               	retlw	116	;'t'
   335  0647  3427               	retlw	39	;'''
   336  0648  3473               	retlw	115	;'s'
   337  0649  3420               	retlw	32	;' '
   338  064A  3444               	retlw	68	;'D'
   339  064B  3461               	retlw	97	;'a'
   340  064C  3472               	retlw	114	;'r'
   341  064D  346B               	retlw	107	;'k'
   342  064E  3420               	retlw	32	;' '
   343  064F  3420               	retlw	32	;' '
   344  0650  3420               	retlw	32	;' '
   345  0651  3420               	retlw	32	;' '
   346  0652  3400               	retlw	0
   347                           psect	strings
   348                           	
   349  0653                     STR_7:	
   350  0653  3444               	retlw	68	;'D'
   351  0654  3441               	retlw	65	;'A'
   352  0655  3452               	retlw	82	;'R'
   353  0656  344B               	retlw	75	;'K'
   354  0657  3443               	retlw	67	;'C'
   355  0658  3441               	retlw	65	;'A'
   356  0659  344C               	retlw	76	;'L'
   357  065A  3443               	retlw	67	;'C'
   358  065B  3400               	retlw	0
   359                           psect	strings
   360                           	
   361  065C                     STR_13:	
   362  065C  3443               	retlw	67	;'C'
   363  065D  3448               	retlw	72	;'H'
   364  065E  3453               	retlw	83	;'S'
   365  065F  3454               	retlw	84	;'T'
   366  0660  3441               	retlw	65	;'A'
   367  0661  3454               	retlw	84	;'T'
   368  0662  3445               	retlw	69	;'E'
   369  0663  3400               	retlw	0
   370                           psect	strings
   371                           	
   372  0664                     STR_1:	
   373  0664  344E               	retlw	78	;'N'
   374  0665  3431               	retlw	49	;'1'
   375  0666  3442               	retlw	66	;'B'
   376  0667  344C               	retlw	76	;'L'
   377  0668  3449               	retlw	73	;'I'
   378  0669  344E               	retlw	78	;'N'
   379  066A  344B               	retlw	75	;'K'
   380  066B  3400               	retlw	0
   381                           psect	strings
   382                           	
   383  066C                     STR_2:	
   384  066C  344E               	retlw	78	;'N'
   385  066D  3432               	retlw	50	;'2'
   386  066E  3442               	retlw	66	;'B'
   387  066F  344C               	retlw	76	;'L'
   388  0670  3449               	retlw	73	;'I'
   389  0671  344E               	retlw	78	;'N'
   390  0672  344B               	retlw	75	;'K'
   391  0673  3400               	retlw	0
   392                           psect	strings
   393                           	
   394  0674                     STR_5:	
   395  0674  3453               	retlw	83	;'S'
   396  0675  3445               	retlw	69	;'E'
   397  0676  344E               	retlw	78	;'N'
   398  0677  3453               	retlw	83	;'S'
   399  0678  3456               	retlw	86	;'V'
   400  0679  3441               	retlw	65	;'A'
   401  067A  344C               	retlw	76	;'L'
   402  067B  3400               	retlw	0
   403                           psect	strings
   404                           	
   405  067C                     STR_10:	
   406  067C  3453               	retlw	83	;'S'
   407  067D  3454               	retlw	84	;'T'
   408  067E  3441               	retlw	65	;'A'
   409  067F  3454               	retlw	84	;'T'
   410  0680  3445               	retlw	69	;'E'
   411  0681  343F               	retlw	63	;'?'
   412  0682  3400               	retlw	0
   413                           psect	strings
   414                           	
   415  0683                     STR_4:	
   416  0683  3446               	retlw	70	;'F'
   417  0684  344C               	retlw	76	;'L'
   418  0685  3441               	retlw	65	;'A'
   419  0686  3453               	retlw	83	;'S'
   420  0687  3448               	retlw	72	;'H'
   421  0688  3442               	retlw	66	;'B'
   422  0689  3400               	retlw	0
   423                           psect	strings
   424                           	
   425  068A                     STR_6:	
   426  068A  3450               	retlw	80	;'P'
   427  068B  344F               	retlw	79	;'O'
   428  068C  3454               	retlw	84	;'T'
   429  068D  3456               	retlw	86	;'V'
   430  068E  3441               	retlw	65	;'A'
   431  068F  344C               	retlw	76	;'L'
   432  0690  3400               	retlw	0
   433                           psect	strings
   434                           	
   435  0691                     STR_3:	
   436  0691  3446               	retlw	70	;'F'
   437  0692  344C               	retlw	76	;'L'
   438  0693  3441               	retlw	65	;'A'
   439  0694  3453               	retlw	83	;'S'
   440  0695  3448               	retlw	72	;'H'
   441  0696  344C               	retlw	76	;'L'
   442  0697  3400               	retlw	0
   443                           psect	strings
   444                           	
   445  0698                     STR_15:	
   446  0698  3444               	retlw	68	;'D'
   447  0699  3445               	retlw	69	;'E'
   448  069A  3443               	retlw	67	;'C'
   449  069B  3444               	retlw	68	;'D'
   450  069C  3456               	retlw	86	;'V'
   451  069D  3400               	retlw	0
   452                           psect	strings
   453                           	
   454  069E                     STR_14:	
   455  069E  3449               	retlw	73	;'I'
   456  069F  344E               	retlw	78	;'N'
   457  06A0  3443               	retlw	67	;'C'
   458  06A1  3444               	retlw	68	;'D'
   459  06A2  3456               	retlw	86	;'V'
   460  06A3  3400               	retlw	0
   461                           psect	strings
   462                           	
   463  06A4                     STR_16:	
   464  06A4  3452               	retlw	82	;'R'
   465  06A5  344D               	retlw	77	;'M'
   466  06A6  3444               	retlw	68	;'D'
   467  06A7  3456               	retlw	86	;'V'
   468  06A8  3400               	retlw	0
   469                           psect	strings
   470                           	
   471  06A9                     STR_12:	
   472  06A9  3450               	retlw	80	;'P'
   473  06AA  3449               	retlw	73	;'I'
   474  06AB  3443               	retlw	67	;'C'
   475  06AC  3400               	retlw	0
   476                           psect	strings
   477                           	
   478  06AD                     STR_11:	
   479  06AD  3450               	retlw	80	;'P'
   480  06AE  346F               	retlw	111	;'o'
   481  06AF  3474               	retlw	116	;'t'
   482  06B0  3400               	retlw	0
   483                           psect	strings
   484  066C                     STR_18	equ	STR_2+0
   485  0664                     STR_17	equ	STR_1+0
   486                           	file	"Bustel Card v10.0 code v1.7.1.as"
   487                           	line	#
   488                           psect cinit,class=CODE,delta=2
   489                           global start_initialization
   490  07BC                     start_initialization:
   491                           
   492                           psect	bssCOMMON,class=COMMON,space=1
   493                           global __pbssCOMMON
   494  007C                     __pbssCOMMON:
   495  007C                     _intBlinkCounter:
   496  007C                            ds      2
   497                           
   498                           psect	bssBANK0,class=BANK0,space=1
   499                           global __pbssBANK0
   500  005D                     __pbssBANK0:
   501  005D                     _channelFound:
   502  005D                            ds      2
   503                           
   504  005F                     _intBlinkCycle:
   505  005F                            ds      2
   506                           
   507  0061                     _intDarkCheckIntervall:
   508  0061                            ds      2
   509                           
   510  0063                     _intHalfSecondCounter:
   511  0063                            ds      2
   512                           
   513  0065                     _intMinuteCounter:
   514  0065                            ds      2
   515                           
   516  0067                     _intSecondCounter:
   517  0067                            ds      2
   518                           
   519  0069                     _bChannelFound:
   520  0069                            ds      1
   521                           
   522  006A                     _bDark:
   523  006A                            ds      1
   524                           
   525  006B                     _bTransiverModeReceive:
   526  006B                            ds      1
   527                           
   528                           psect	dataBANK0,class=BANK0,space=1
   529                           global __pdataBANK0
   530  006C                     __pdataBANK0:
   531                           	file	"C:\Users\Seba\Documents\Projekt\Bustel\Bustel_Project\Bustel Card v10.0 code v1.7
                                 .1\Main Card V10.0.c"
   532                           	line	59
   533  006C                     _intNumberOfBlinks:
   534  006C                            ds      2
   535                           
   536                           psect	dataBANK0
   537                           	file	"C:\Users\Seba\Documents\Projekt\Bustel\Bustel_Project\Bustel Card v10.0 code v1.7
                                 .1\Main Card V10.0.c"
   538                           	line	62
   539  006E                     _bValueFromPot:
   540  006E                            ds      1
   541                           
   542                           psect	dataBANK0
   543                           	file	"C:\Users\Seba\Documents\Projekt\Bustel\Bustel_Project\Bustel Card v10.0 code v1.7
                                 .1\Main Card V10.0.c"
   544                           	line	63
   545  006F                     _chManualDarknessValue:
   546  006F                            ds      1
   547                           
   548                           psect	bssBANK1,class=BANK1,space=1
   549                           global __pbssBANK1
   550  00A0                     __pbssBANK1:
   551  00A0                     _intClockTimer:
   552  00A0                            ds      10
   553                           
   554  00AA                     _bTimerComplete:
   555  00AA                            ds      5
   556                           
   557  00AF                     _TransmittedString:
   558  00AF                            ds      30
   559                           
   560                           psect	bssBANK3,class=BANK3,space=1
   561                           global __pbssBANK3
   562  0190                     __pbssBANK3:
   563  0190                     _ReceivedData:
   564  0190                            ds      40
   565                           
   566                           psect clrtext,class=CODE,delta=2
   567                           global clear_ram
   568                           ;	Called with FSR containing the base address, and
   569                           ;	W with the last address+1
   570  0BC5                     clear_ram:
   571  0BC5  0064               	clrwdt			;clear the watchdog before getting into this loop
   572  0BC6                     clrloop:
   573  0BC6  0180               	clrf	indf		;clear RAM location pointed to by FSR
   574  0BC7  0A84               	incf	fsr,f		;increment pointer
   575  0BC8  0604               	xorwf	fsr,w		;XOR with final address
   576  0BC9  1903               	btfsc	status,2	;have we reached the end yet?
   577  0BCA  3400               	retlw	0		;all done for this memory range, return
   578  0BCB  0604               	xorwf	fsr,w		;XOR again to restore value
   579  0BCC  2BC6               	goto	clrloop		;do the next byte
   580                           
   581                           ; Clear objects allocated to COMMON
   582                           psect cinit,class=CODE,delta=2
   583  07BC  01FC               	clrf	((__pbssCOMMON)+0)&07Fh
   584  07BD  01FD               	clrf	((__pbssCOMMON)+1)&07Fh
   585                           ; Clear objects allocated to BANK0
   586                           psect cinit,class=CODE,delta=2
   587  07BE  1383               	bcf	status, 7	;select IRP bank0
   588  07BF  305D               	movlw	low(__pbssBANK0)
   589  07C0  0084               	movwf	fsr
   590  07C1  306C               	movlw	low((__pbssBANK0)+0Fh)
   591  07C2  120A  158A  23C5   	fcall	clear_ram
              120A  118A         
   592                           ; Clear objects allocated to BANK1
   593                           psect cinit,class=CODE,delta=2
   594  07C7  30A0               	movlw	low(__pbssBANK1)
   595  07C8  0084               	movwf	fsr
   596  07C9  30CD               	movlw	low((__pbssBANK1)+02Dh)
   597  07CA  120A  158A  23C5   	fcall	clear_ram
              120A  118A         
   598                           ; Clear objects allocated to BANK3
   599                           psect cinit,class=CODE,delta=2
   600  07CF  1783               	bsf	status, 7	;select IRP bank2
   601  07D0  3090               	movlw	low(__pbssBANK3)
   602  07D1  0084               	movwf	fsr
   603  07D2  30B8               	movlw	low((__pbssBANK3)+028h)
   604  07D3  120A  158A  23C5   	fcall	clear_ram
              120A  118A         
   605                           ; Initialize objects allocated to BANK0
   606                           	global __pidataBANK0
   607                           psect cinit,class=CODE,delta=2
   608  07D8  120A  158A  23BB   	fcall	__pidataBANK0+0		;fetch initializer
              120A  118A         
   609  07DD  00EC               	movwf	__pdataBANK0+0&07fh		
   610  07DE  120A  158A  23BC   	fcall	__pidataBANK0+1		;fetch initializer
              120A  118A         
   611  07E3  00ED               	movwf	__pdataBANK0+1&07fh		
   612  07E4  120A  158A  23BD   	fcall	__pidataBANK0+2		;fetch initializer
              120A  118A         
   613  07E9  00EE               	movwf	__pdataBANK0+2&07fh		
   614  07EA  120A  158A  23BE   	fcall	__pidataBANK0+3		;fetch initializer
              120A  118A         
   615  07EF  00EF               	movwf	__pdataBANK0+3&07fh		
   616                           psect cinit,class=CODE,delta=2
   617                           global end_of_initialization
   618                           
   619                           ;End of C runtime variable initialization code
   620                           
   621  07F0                     end_of_initialization:
   622  07F0  0183               clrf status
   623  07F1  120A  118A  2EB1   ljmp _main	;jump to C main() function
   624                           psect	cstackCOMMON,class=COMMON,space=1
   625                           global __pcstackCOMMON
   626  0070                     __pcstackCOMMON:
   627                           	global	?_init
   628  0070                     ?_init:	; 0 bytes @ 0x0
   629                           	global	?_TransiverInit
   630  0070                     ?_TransiverInit:	; 0 bytes @ 0x0
   631                           	global	?_Mode_0
   632  0070                     ?_Mode_0:	; 0 bytes @ 0x0
   633                           	global	?_Mode_1
   634  0070                     ?_Mode_1:	; 0 bytes @ 0x0
   635                           	global	?_Mode_2
   636  0070                     ?_Mode_2:	; 0 bytes @ 0x0
   637                           	global	?_Mode_4
   638  0070                     ?_Mode_4:	; 0 bytes @ 0x0
   639                           	global	?_Mode_5
   640  0070                     ?_Mode_5:	; 0 bytes @ 0x0
   641                           	global	?_TransiverToReceive
   642  0070                     ?_TransiverToReceive:	; 0 bytes @ 0x0
   643                           	global	?_TransiverReadFIFO
   644  0070                     ?_TransiverReadFIFO:	; 0 bytes @ 0x0
   645                           	global	?_SetRFMode
   646  0070                     ?_SetRFMode:	; 0 bytes @ 0x0
   647                           	global	?_TransmittedDataHandler
   648  0070                     ?_TransmittedDataHandler:	; 0 bytes @ 0x0
   649                           	global	?_DarknessCheck
   650  0070                     ?_DarknessCheck:	; 0 bytes @ 0x0
   651                           	global	?_WriteFIFO
   652  0070                     ?_WriteFIFO:	; 0 bytes @ 0x0
   653                           	global	?_LightWithSensController
   654  0070                     ?_LightWithSensController:	; 0 bytes @ 0x0
   655                           	global	?_main
   656  0070                     ?_main:	; 0 bytes @ 0x0
   657                           	global	?_TimerCounter
   658  0070                     ?_TimerCounter:	; 0 bytes @ 0x0
   659                           	global	??_TimerCounter
   660  0070                     ??_TimerCounter:	; 0 bytes @ 0x0
   661                           	global	?_WriteSPI
   662  0070                     ?_WriteSPI:	; 0 bytes @ 0x0
   663                           	global	?_tc_int
   664  0070                     ?_tc_int:	; 0 bytes @ 0x0
   665                           	global	??i1_OperationMode
   666  0070                     ??i1_OperationMode:	; 0 bytes @ 0x0
   667                           	global	?_OperationMode
   668  0070                     ?_OperationMode:	; 1 bytes @ 0x0
   669                           	global	?_RegisterRead
   670  0070                     ?_RegisterRead:	; 1 bytes @ 0x0
   671                           	global	?_FindChannel
   672  0070                     ?_FindChannel:	; 1 bytes @ 0x0
   673                           	global	?_ReadFIFO
   674  0070                     ?_ReadFIFO:	; 1 bytes @ 0x0
   675                           	global	?_AnalogValue
   676  0070                     ?_AnalogValue:	; 1 bytes @ 0x0
   677                           	global	?_ReadSPI
   678  0070                     ?_ReadSPI:	; 1 bytes @ 0x0
   679                           	global	?i1_OperationMode
   680  0070                     ?i1_OperationMode:	; 1 bytes @ 0x0
   681  0070                     	ds	1
   682                           	global	i1OperationMode@bracketStatus
   683  0071                     i1OperationMode@bracketStatus:	; 1 bytes @ 0x1
   684  0071                     	ds	2
   685                           	global	TimerCounter@i
   686  0073                     TimerCounter@i:	; 2 bytes @ 0x3
   687  0073                     	ds	2
   688                           	global	??_tc_int
   689  0075                     ??_tc_int:	; 0 bytes @ 0x5
   690  0075                     	ds	7
   691                           psect	cstackBANK0,class=BANK0,space=1
   692                           global __pcstackBANK0
   693  0020                     __pcstackBANK0:
   694                           	global	??_init
   695  0020                     ??_init:	; 0 bytes @ 0x0
   696                           	global	??_OperationMode
   697  0020                     ??_OperationMode:	; 0 bytes @ 0x0
   698                           	global	?_DelayDs
   699  0020                     ?_DelayDs:	; 0 bytes @ 0x0
   700                           	global	??_WriteSPI
   701  0020                     ??_WriteSPI:	; 0 bytes @ 0x0
   702                           	global	?_timerFunction
   703  0020                     ?_timerFunction:	; 1 bytes @ 0x0
   704                           	global	?_strchr
   705  0020                     ?_strchr:	; 1 bytes @ 0x0
   706                           	global	?_strlen
   707  0020                     ?_strlen:	; 2 bytes @ 0x0
   708                           	global	timerFunction@intTimerNumber
   709  0020                     timerFunction@intTimerNumber:	; 2 bytes @ 0x0
   710                           	global	DelayDs@cnt
   711  0020                     DelayDs@cnt:	; 2 bytes @ 0x0
   712                           	global	strchr@chr
   713  0020                     strchr@chr:	; 2 bytes @ 0x0
   714  0020                     	ds	1
   715                           	global	WriteSPI@buffer
   716  0021                     WriteSPI@buffer:	; 1 bytes @ 0x1
   717                           	global	OperationMode@bracketStatus
   718  0021                     OperationMode@bracketStatus:	; 1 bytes @ 0x1
   719  0021                     	ds	1
   720                           	global	??_DelayDs
   721  0022                     ??_DelayDs:	; 0 bytes @ 0x2
   722                           	global	??_strlen
   723  0022                     ??_strlen:	; 0 bytes @ 0x2
   724                           	global	??_strchr
   725  0022                     ??_strchr:	; 0 bytes @ 0x2
   726                           	global	WriteSPI@databyte
   727  0022                     WriteSPI@databyte:	; 1 bytes @ 0x2
   728                           	global	strchr@ptr
   729  0022                     strchr@ptr:	; 1 bytes @ 0x2
   730                           	global	timerFunction@intSetSeconds
   731  0022                     timerFunction@intSetSeconds:	; 2 bytes @ 0x2
   732  0022                     	ds	1
   733                           	global	?_RegisterSet
   734  0023                     ?_RegisterSet:	; 0 bytes @ 0x3
   735                           	global	??_ReadFIFO
   736  0023                     ??_ReadFIFO:	; 0 bytes @ 0x3
   737                           	global	??_WriteFIFO
   738  0023                     ??_WriteFIFO:	; 0 bytes @ 0x3
   739                           	global	??_ReadSPI
   740  0023                     ??_ReadSPI:	; 0 bytes @ 0x3
   741                           	global	RegisterSet@value
   742  0023                     RegisterSet@value:	; 1 bytes @ 0x3
   743                           	global	WriteFIFO@Data
   744  0023                     WriteFIFO@Data:	; 1 bytes @ 0x3
   745  0023                     	ds	1
   746                           	global	??_timerFunction
   747  0024                     ??_timerFunction:	; 0 bytes @ 0x4
   748                           	global	??_RegisterSet
   749  0024                     ??_RegisterSet:	; 0 bytes @ 0x4
   750                           	global	ReadFIFO@value
   751  0024                     ReadFIFO@value:	; 1 bytes @ 0x4
   752                           	global	DelayDs@i
   753  0024                     DelayDs@i:	; 2 bytes @ 0x4
   754  0024                     	ds	2
   755                           	global	??_AnalogValue
   756  0026                     ??_AnalogValue:	; 0 bytes @ 0x6
   757                           	global	?_Blink
   758  0026                     ?_Blink:	; 0 bytes @ 0x6
   759                           	global	RegisterSet@adress
   760  0026                     RegisterSet@adress:	; 1 bytes @ 0x6
   761                           	global	Blink@n
   762  0026                     Blink@n:	; 2 bytes @ 0x6
   763  0026                     	ds	1
   764                           	global	??_RegisterRead
   765  0027                     ??_RegisterRead:	; 0 bytes @ 0x7
   766                           	global	AnalogValue@channel
   767  0027                     AnalogValue@channel:	; 1 bytes @ 0x7
   768  0027                     	ds	1
   769                           	global	??_DarknessCheck
   770  0028                     ??_DarknessCheck:	; 0 bytes @ 0x8
   771                           	global	??_Blink
   772  0028                     ??_Blink:	; 0 bytes @ 0x8
   773                           	global	strlen@s
   774  0028                     strlen@s:	; 1 bytes @ 0x8
   775  0028                     	ds	1
   776                           	global	RegisterRead@value
   777  0029                     RegisterRead@value:	; 1 bytes @ 0x9
   778                           	global	DarknessCheck@darknessValue
   779  0029                     DarknessCheck@darknessValue:	; 1 bytes @ 0x9
   780                           	global	strlen@cp
   781  0029                     strlen@cp:	; 1 bytes @ 0x9
   782                           	global	Blink@i
   783  0029                     Blink@i:	; 2 bytes @ 0x9
   784  0029                     	ds	1
   785                           	global	??_Mode_0
   786  002A                     ??_Mode_0:	; 0 bytes @ 0xA
   787                           	global	??_Mode_1
   788  002A                     ??_Mode_1:	; 0 bytes @ 0xA
   789                           	global	??_Mode_2
   790  002A                     ??_Mode_2:	; 0 bytes @ 0xA
   791                           	global	??_LightWithSensController
   792  002A                     ??_LightWithSensController:	; 0 bytes @ 0xA
   793                           	global	?_strncmp
   794  002A                     ?_strncmp:	; 2 bytes @ 0xA
   795                           	global	RegisterRead@adress
   796  002A                     RegisterRead@adress:	; 1 bytes @ 0xA
   797                           	global	strncmp@s2
   798  002A                     strncmp@s2:	; 1 bytes @ 0xA
   799  002A                     	ds	1
   800                           	global	??_SetRFMode
   801  002B                     ??_SetRFMode:	; 0 bytes @ 0xB
   802                           	global	strncmp@len
   803  002B                     strncmp@len:	; 2 bytes @ 0xB
   804  002B                     	ds	1
   805                           	global	SetRFMode@mode
   806  002C                     SetRFMode@mode:	; 1 bytes @ 0xC
   807  002C                     	ds	1
   808                           	global	??_strncmp
   809  002D                     ??_strncmp:	; 0 bytes @ 0xD
   810                           	global	SetRFMode@mcparam0_read
   811  002D                     SetRFMode@mcparam0_read:	; 1 bytes @ 0xD
   812  002D                     	ds	1
   813                           	global	??_FindChannel
   814  002E                     ??_FindChannel:	; 0 bytes @ 0xE
   815  002E                     	ds	1
   816                           	global	strncmp@s1
   817  002F                     strncmp@s1:	; 1 bytes @ 0xF
   818  002F                     	ds	1
   819                           	global	?_strstr
   820  0030                     ?_strstr:	; 1 bytes @ 0x10
   821                           	global	strstr@s2
   822  0030                     strstr@s2:	; 1 bytes @ 0x10
   823  0030                     	ds	1
   824                           	global	??_strstr
   825  0031                     ??_strstr:	; 0 bytes @ 0x11
   826                           	global	FindChannel@cnt
   827  0031                     FindChannel@cnt:	; 2 bytes @ 0x11
   828  0031                     	ds	2
   829                           	global	FindChannel@i
   830  0033                     FindChannel@i:	; 2 bytes @ 0x13
   831  0033                     	ds	1
   832                           	global	strstr@s1
   833  0034                     strstr@s1:	; 1 bytes @ 0x14
   834  0034                     	ds	1
   835                           	global	??_TransiverInit
   836  0035                     ??_TransiverInit:	; 0 bytes @ 0x15
   837                           	global	??_TransiverToReceive
   838  0035                     ??_TransiverToReceive:	; 0 bytes @ 0x15
   839                           	global	?_TransmittString
   840  0035                     ?_TransmittString:	; 0 bytes @ 0x15
   841                           	global	TransmittString@dataString
   842  0035                     TransmittString@dataString:	; 2 bytes @ 0x15
   843  0035                     	ds	2
   844                           	global	??_TransmittString
   845  0037                     ??_TransmittString:	; 0 bytes @ 0x17
   846  0037                     	ds	2
   847                           	global	TransmittString@i
   848  0039                     TransmittString@i:	; 2 bytes @ 0x19
   849  0039                     	ds	2
   850                           	global	??_Mode_4
   851  003B                     ??_Mode_4:	; 0 bytes @ 0x1B
   852                           	global	??_Mode_5
   853  003B                     ??_Mode_5:	; 0 bytes @ 0x1B
   854                           	global	??_TransmittedDataHandler
   855  003B                     ??_TransmittedDataHandler:	; 0 bytes @ 0x1B
   856  003B                     	ds	1
   857                           	global	TransmittedDataHandler@slask
   858  003C                     TransmittedDataHandler@slask:	; 8 bytes @ 0x1C
   859  003C                     	ds	8
   860                           	global	TransmittedDataHandler@slask_1866
   861  0044                     TransmittedDataHandler@slask_1866:	; 8 bytes @ 0x24
   862  0044                     	ds	8
   863                           	global	TransmittedDataHandler@slask_1877
   864  004C                     TransmittedDataHandler@slask_1877:	; 8 bytes @ 0x2C
   865  004C                     	ds	8
   866                           	global	??_TransiverReadFIFO
   867  0054                     ??_TransiverReadFIFO:	; 0 bytes @ 0x34
   868  0054                     	ds	2
   869                           	global	TransiverReadFIFO@i
   870  0056                     TransiverReadFIFO@i:	; 2 bytes @ 0x36
   871  0056                     	ds	2
   872                           	global	TransiverReadFIFO@j
   873  0058                     TransiverReadFIFO@j:	; 2 bytes @ 0x38
   874  0058                     	ds	2
   875                           	global	??_main
   876  005A                     ??_main:	; 0 bytes @ 0x3A
   877  005A                     	ds	3
   878 ;;Data sizes: Strings 122, constant 39, data 4, bss 102, persistent 0 stack 0
   879 ;;Auto spaces:   Size  Autos    Used
   880 ;; COMMON          14     12      14
   881 ;; BANK0           80     61      80
   882 ;; BANK1           80      0      45
   883 ;; BANK3           96      0      40
   884 ;; BANK2           96      0       0
   885                           
   886 ;;
   887 ;; Pointer list with targets:
   888                           
   889 ;; ?_strchr	PTR unsigned char  size(1) Largest target is 30
   890 ;;		 -> NULL(NULL[0]), TransmittedString(BANK1[30]), 
   891 ;;
   892 ;; ?_strncmp	int  size(1) Largest target is 0
   893 ;;
   894 ;; ?_strlen	unsigned int  size(1) Largest target is 9
   895 ;;		 -> STR_16(CODE[5]), STR_15(CODE[6]), STR_14(CODE[6]), STR_13(CODE[8]), 
   896 ;;		 -> STR_10(CODE[7]), STR_7(CODE[9]), STR_6(CODE[7]), STR_5(CODE[8]), 
   897 ;;		 -> STR_4(CODE[7]), STR_3(CODE[7]), STR_2(CODE[8]), STR_1(CODE[8]), 
   898 ;;
   899 ;; ?_strstr	PTR unsigned char  size(1) Largest target is 30
   900 ;;		 -> NULL(NULL[0]), TransmittedString(BANK1[30]), 
   901 ;;
   902 ;; strncmp@s2	PTR const unsigned char  size(1) Largest target is 9
   903 ;;		 -> STR_16(CODE[5]), STR_15(CODE[6]), STR_14(CODE[6]), STR_13(CODE[8]), 
   904 ;;		 -> STR_10(CODE[7]), STR_7(CODE[9]), STR_6(CODE[7]), STR_5(CODE[8]), 
   905 ;;		 -> STR_4(CODE[7]), STR_3(CODE[7]), STR_2(CODE[8]), STR_1(CODE[8]), 
   906 ;;
   907 ;; strncmp@s1	PTR const unsigned char  size(1) Largest target is 30
   908 ;;		 -> NULL(NULL[0]), TransmittedString(BANK1[30]), 
   909 ;;
   910 ;; strlen@s	PTR const unsigned char  size(1) Largest target is 9
   911 ;;		 -> STR_16(CODE[5]), STR_15(CODE[6]), STR_14(CODE[6]), STR_13(CODE[8]), 
   912 ;;		 -> STR_10(CODE[7]), STR_7(CODE[9]), STR_6(CODE[7]), STR_5(CODE[8]), 
   913 ;;		 -> STR_4(CODE[7]), STR_3(CODE[7]), STR_2(CODE[8]), STR_1(CODE[8]), 
   914 ;;
   915 ;; strlen@cp	PTR const unsigned char  size(1) Largest target is 9
   916 ;;		 -> STR_16(CODE[5]), STR_15(CODE[6]), STR_14(CODE[6]), STR_13(CODE[8]), 
   917 ;;		 -> STR_10(CODE[7]), STR_7(CODE[9]), STR_6(CODE[7]), STR_5(CODE[8]), 
   918 ;;		 -> STR_4(CODE[7]), STR_3(CODE[7]), STR_2(CODE[8]), STR_1(CODE[8]), 
   919 ;;
   920 ;; strchr@ptr	PTR const unsigned char  size(1) Largest target is 30
   921 ;;		 -> NULL(NULL[0]), TransmittedString(BANK1[30]), 
   922 ;;
   923 ;; sp__strchr	PTR unsigned char  size(1) Largest target is 30
   924 ;;		 -> NULL(NULL[0]), TransmittedString(BANK1[30]), 
   925 ;;
   926 ;; strstr@s2	PTR const unsigned char  size(1) Largest target is 9
   927 ;;		 -> STR_16(CODE[5]), STR_15(CODE[6]), STR_14(CODE[6]), STR_13(CODE[8]), 
   928 ;;		 -> STR_10(CODE[7]), STR_7(CODE[9]), STR_6(CODE[7]), STR_5(CODE[8]), 
   929 ;;		 -> STR_4(CODE[7]), STR_3(CODE[7]), STR_2(CODE[8]), STR_1(CODE[8]), 
   930 ;;
   931 ;; strstr@s1	PTR const unsigned char  size(1) Largest target is 30
   932 ;;		 -> NULL(NULL[0]), TransmittedString(BANK1[30]), 
   933 ;;
   934 ;; TransmittString@dataString	PTR unsigned char  size(2) Largest target is 14
   935 ;;		 -> STR_18(CODE[8]), STR_17(CODE[8]), TransmittedDataHandler@slask_1877(BANK0[8]), STR_12(CODE[4]), 
   936 ;;		 -> STR_11(CODE[4]), STR_9(CODE[14]), STR_8(CODE[14]), TransmittedDataHandler@slask_1866(BANK0[8]), 
   937 ;;		 -> TransmittedDataHandler@slask(BANK0[8]), 
   938 ;;
   939 ;; sp__strstr	PTR unsigned char  size(1) Largest target is 30
   940 ;;		 -> NULL(NULL[0]), TransmittedString(BANK1[30]), 
   941 ;;
   942                           
   943                           
   944 ;;
   945 ;; Critical Paths under _main in COMMON
   946 ;;
   947 ;;   None.
   948 ;;
   949 ;; Critical Paths under _tc_int in COMMON
   950 ;;
   951 ;;   _tc_int->_TimerCounter
   952 ;;
   953 ;; Critical Paths under _main in BANK0
   954 ;;
   955 ;;   _main->_TransiverReadFIFO
   956 ;;   _TransiverReadFIFO->_TransmittedDataHandler
   957 ;;   _TransmittedDataHandler->_TransmittString
   958 ;;   _Mode_5->_TransmittString
   959 ;;   _Mode_4->_TransmittString
   960 ;;   _TransmittString->_FindChannel
   961 ;;   _TransiverToReceive->_FindChannel
   962 ;;   _TransiverInit->_FindChannel
   963 ;;   _LightWithSensController->_DarknessCheck
   964 ;;   _FindChannel->_SetRFMode
   965 ;;   _Mode_1->_DarknessCheck
   966 ;;   _DarknessCheck->_AnalogValue
   967 ;;   _SetRFMode->_RegisterRead
   968 ;;   _Blink->_DelayDs
   969 ;;   _AnalogValue->_DelayDs
   970 ;;   _RegisterRead->_RegisterSet
   971 ;;   _ReadSPI->_WriteSPI
   972 ;;   _WriteFIFO->_WriteSPI
   973 ;;   _strstr->_strncmp
   974 ;;   _RegisterSet->_WriteSPI
   975 ;;   _strncmp->_strlen
   976 ;;
   977 ;; Critical Paths under _tc_int in BANK0
   978 ;;
   979 ;;   None.
   980 ;;
   981 ;; Critical Paths under _main in BANK1
   982 ;;
   983 ;;   None.
   984 ;;
   985 ;; Critical Paths under _tc_int in BANK1
   986 ;;
   987 ;;   None.
   988 ;;
   989 ;; Critical Paths under _main in BANK3
   990 ;;
   991 ;;   None.
   992 ;;
   993 ;; Critical Paths under _tc_int in BANK3
   994 ;;
   995 ;;   None.
   996 ;;
   997 ;; Critical Paths under _main in BANK2
   998 ;;
   999 ;;   None.
  1000 ;;
  1001 ;; Critical Paths under _tc_int in BANK2
  1002 ;;
  1003 ;;   None.
  1004                           
  1005 ;;
  1006 ;;Main: autosize = 0, tempsize = 3, incstack = 0, save=0
  1007 ;;
  1008                           
  1009 ;;
  1010 ;;Call Graph Tables:
  1011 ;;
  1012 ;; ---------------------------------------------------------------------------------
  1013 ;; (Depth) Function   	        Calls       Base Space   Used Autos Params    Refs
  1014 ;; ---------------------------------------------------------------------------------
  1015 ;; (0) _main                                                 3     3      0    9376
  1016 ;;                                             58 BANK0      3     3      0
  1017 ;;                               _init
  1018 ;;                      _TransiverInit
  1019 ;;                      _OperationMode
  1020 ;;                             _Mode_0
  1021 ;;                             _Mode_1
  1022 ;;                             _Mode_2
  1023 ;;                             _Mode_4
  1024 ;;                             _Mode_5
  1025 ;;                 _TransiverToReceive
  1026 ;;                  _TransiverReadFIFO
  1027 ;; ---------------------------------------------------------------------------------
  1028 ;; (1) _TransiverReadFIFO                                    6     6      0    2841
  1029 ;;                                             52 BANK0      6     6      0
  1030 ;;                      _timerFunction
  1031 ;;                          _SetRFMode
  1032 ;;                           _ReadFIFO
  1033 ;;             _TransmittedDataHandler
  1034 ;; ---------------------------------------------------------------------------------
  1035 ;; (2) _TransmittedDataHandler                              25    25      0    2300
  1036 ;;                                             27 BANK0     25    25      0
  1037 ;;                             _strstr
  1038 ;;                      _OperationMode
  1039 ;;                            _DelayDs
  1040 ;;                        _AnalogValue
  1041 ;;                    _TransmittString
  1042 ;;                      _DarknessCheck
  1043 ;; ---------------------------------------------------------------------------------
  1044 ;; (1) _Mode_5                                               0     0      0    1666
  1045 ;;                    _TransmittString
  1046 ;;            _LightWithSensController
  1047 ;; ---------------------------------------------------------------------------------
  1048 ;; (1) _Mode_4                                               0     0      0    1666
  1049 ;;                    _TransmittString
  1050 ;;            _LightWithSensController
  1051 ;; ---------------------------------------------------------------------------------
  1052 ;; (3) _TransmittString                                      6     4      2    1508
  1053 ;;                                             21 BANK0      6     4      2
  1054 ;;                      _timerFunction
  1055 ;;                          _SetRFMode
  1056 ;;                       _RegisterRead
  1057 ;;                        _RegisterSet
  1058 ;;                        _FindChannel
  1059 ;;                          _WriteFIFO
  1060 ;; ---------------------------------------------------------------------------------
  1061 ;; (1) _TransiverToReceive                                   2     2      0    1373
  1062 ;;                                             21 BANK0      2     2      0
  1063 ;;                      _timerFunction
  1064 ;;                          _SetRFMode
  1065 ;;                       _RegisterRead
  1066 ;;                        _RegisterSet
  1067 ;;                        _FindChannel
  1068 ;; ---------------------------------------------------------------------------------
  1069 ;; (1) _Mode_2                                               0     0      0     158
  1070 ;;            _LightWithSensController
  1071 ;; ---------------------------------------------------------------------------------
  1072 ;; (1) _Mode_0                                               0     0      0     158
  1073 ;;            _LightWithSensController
  1074 ;; ---------------------------------------------------------------------------------
  1075 ;; (1) _TransiverInit                                        1     1      0    1399
  1076 ;;                                             21 BANK0      1     1      0
  1077 ;;                        _RegisterSet
  1078 ;;                       _RegisterRead
  1079 ;;                        _FindChannel
  1080 ;;                              _Blink
  1081 ;;                          _SetRFMode
  1082 ;; ---------------------------------------------------------------------------------
  1083 ;; (2) _LightWithSensController                              0     0      0     158
  1084 ;;                      _DarknessCheck
  1085 ;;                      _timerFunction
  1086 ;; ---------------------------------------------------------------------------------
  1087 ;; (4) _FindChannel                                          7     7      0     766
  1088 ;;                                             14 BANK0      7     7      0
  1089 ;;                        _RegisterSet
  1090 ;;                       _RegisterRead
  1091 ;;                          _SetRFMode
  1092 ;; ---------------------------------------------------------------------------------
  1093 ;; (1) _Mode_1                                               0     0      0      92
  1094 ;;                      _DarknessCheck
  1095 ;; ---------------------------------------------------------------------------------
  1096 ;; (3) _DarknessCheck                                        2     2      0      92
  1097 ;;                                              8 BANK0      2     2      0
  1098 ;;                        _AnalogValue
  1099 ;; ---------------------------------------------------------------------------------
  1100 ;; (5) _SetRFMode                                            3     3      0     337
  1101 ;;                                             11 BANK0      3     3      0
  1102 ;;                       _RegisterRead
  1103 ;;                        _RegisterSet
  1104 ;; ---------------------------------------------------------------------------------
  1105 ;; (2) _Blink                                                5     3      2      92
  1106 ;;                                              6 BANK0      5     3      2
  1107 ;;                            _DelayDs
  1108 ;; ---------------------------------------------------------------------------------
  1109 ;; (4) _AnalogValue                                          2     2      0      68
  1110 ;;                                              6 BANK0      2     2      0
  1111 ;;                            _DelayDs
  1112 ;; ---------------------------------------------------------------------------------
  1113 ;; (2) _ReadFIFO                                             2     2      0      46
  1114 ;;                                              3 BANK0      2     2      0
  1115 ;;                            _ReadSPI
  1116 ;; ---------------------------------------------------------------------------------
  1117 ;; (6) _RegisterRead                                         4     4      0     114
  1118 ;;                                              7 BANK0      4     4      0
  1119 ;;                           _WriteSPI
  1120 ;;                            _ReadSPI
  1121 ;;                        _RegisterSet (ARG)
  1122 ;; ---------------------------------------------------------------------------------
  1123 ;; (7) _ReadSPI                                              0     0      0      23
  1124 ;;                           _WriteSPI
  1125 ;; ---------------------------------------------------------------------------------
  1126 ;; (4) _WriteFIFO                                            1     1      0      45
  1127 ;;                                              3 BANK0      1     1      0
  1128 ;;                           _WriteSPI
  1129 ;; ---------------------------------------------------------------------------------
  1130 ;; (5) _DelayDs                                              6     4      2      46
  1131 ;;                                              0 BANK0      6     4      2
  1132 ;; ---------------------------------------------------------------------------------
  1133 ;; (3) _strstr                                               5     4      1     488
  1134 ;;                                             16 BANK0      5     4      1
  1135 ;;                             _strlen
  1136 ;;                            _strncmp
  1137 ;;                             _strchr
  1138 ;; ---------------------------------------------------------------------------------
  1139 ;; (6) _RegisterSet                                          4     3      1      90
  1140 ;;                                              3 BANK0      4     3      1
  1141 ;;                           _WriteSPI
  1142 ;;                            _ReadSPI (ARG)
  1143 ;; ---------------------------------------------------------------------------------
  1144 ;; (4) _strchr                                               3     1      2      88
  1145 ;;                                              0 BANK0      3     1      2
  1146 ;; ---------------------------------------------------------------------------------
  1147 ;; (4) _strncmp                                              6     3      3     134
  1148 ;;                                             10 BANK0      6     3      3
  1149 ;;                             _strlen (ARG)
  1150 ;; ---------------------------------------------------------------------------------
  1151 ;; (4) _strlen                                              10     8      2      89
  1152 ;;                                              0 BANK0     10     8      2
  1153 ;; ---------------------------------------------------------------------------------
  1154 ;; (5) _WriteSPI                                             3     3      0      23
  1155 ;;                                              0 BANK0      3     3      0
  1156 ;; ---------------------------------------------------------------------------------
  1157 ;; (4) _timerFunction                                        5     1      4      66
  1158 ;;                                              0 BANK0      5     1      4
  1159 ;; ---------------------------------------------------------------------------------
  1160 ;; (3) _OperationMode                                        2     2      0      23
  1161 ;;                                              0 BANK0      2     2      0
  1162 ;; ---------------------------------------------------------------------------------
  1163 ;; (1) _init                                                 0     0      0       0
  1164 ;; ---------------------------------------------------------------------------------
  1165 ;; Estimated maximum stack depth 7
  1166 ;; ---------------------------------------------------------------------------------
  1167 ;; (Depth) Function   	        Calls       Base Space   Used Autos Params    Refs
  1168 ;; ---------------------------------------------------------------------------------
  1169 ;; (9) _tc_int                                               7     7      0     187
  1170 ;;                                              5 COMMON     7     7      0
  1171 ;;                    i1_OperationMode
  1172 ;;                       _TimerCounter
  1173 ;; ---------------------------------------------------------------------------------
  1174 ;; (10) i1_OperationMode                                     2     2      0      75
  1175 ;;                                              0 COMMON     2     2      0
  1176 ;; ---------------------------------------------------------------------------------
  1177 ;; (10) _TimerCounter                                        5     5      0     112
  1178 ;;                                              0 COMMON     5     5      0
  1179 ;; ---------------------------------------------------------------------------------
  1180 ;; Estimated maximum stack depth 10
  1181 ;; ---------------------------------------------------------------------------------
  1182                           
  1183 ;; Call Graph Graphs:
  1184                           
  1185 ;; _main (ROOT)
  1186 ;;   _init
  1187 ;;   _TransiverInit
  1188 ;;     _RegisterSet
  1189 ;;       _WriteSPI
  1190 ;;       _ReadSPI (ARG)
  1191 ;;         _WriteSPI
  1192 ;;     _RegisterRead
  1193 ;;       _WriteSPI
  1194 ;;       _ReadSPI
  1195 ;;         _WriteSPI
  1196 ;;       _RegisterSet (ARG)
  1197 ;;         _WriteSPI
  1198 ;;         _ReadSPI (ARG)
  1199 ;;           _WriteSPI
  1200 ;;     _FindChannel
  1201 ;;       _RegisterSet
  1202 ;;         _WriteSPI
  1203 ;;         _ReadSPI (ARG)
  1204 ;;           _WriteSPI
  1205 ;;       _RegisterRead
  1206 ;;         _WriteSPI
  1207 ;;         _ReadSPI
  1208 ;;           _WriteSPI
  1209 ;;         _RegisterSet (ARG)
  1210 ;;           _WriteSPI
  1211 ;;           _ReadSPI (ARG)
  1212 ;;             _WriteSPI
  1213 ;;       _SetRFMode
  1214 ;;         _RegisterRead
  1215 ;;           _WriteSPI
  1216 ;;           _ReadSPI
  1217 ;;             _WriteSPI
  1218 ;;           _RegisterSet (ARG)
  1219 ;;             _WriteSPI
  1220 ;;             _ReadSPI (ARG)
  1221 ;;               _WriteSPI
  1222 ;;         _RegisterSet
  1223 ;;           _WriteSPI
  1224 ;;           _ReadSPI (ARG)
  1225 ;;             _WriteSPI
  1226 ;;     _Blink
  1227 ;;       _DelayDs
  1228 ;;     _SetRFMode
  1229 ;;       _RegisterRead
  1230 ;;         _WriteSPI
  1231 ;;         _ReadSPI
  1232 ;;           _WriteSPI
  1233 ;;         _RegisterSet (ARG)
  1234 ;;           _WriteSPI
  1235 ;;           _ReadSPI (ARG)
  1236 ;;             _WriteSPI
  1237 ;;       _RegisterSet
  1238 ;;         _WriteSPI
  1239 ;;         _ReadSPI (ARG)
  1240 ;;           _WriteSPI
  1241 ;;   _OperationMode
  1242 ;;   _Mode_0
  1243 ;;     _LightWithSensController
  1244 ;;       _DarknessCheck
  1245 ;;         _AnalogValue
  1246 ;;           _DelayDs
  1247 ;;       _timerFunction
  1248 ;;   _Mode_1
  1249 ;;     _DarknessCheck
  1250 ;;       _AnalogValue
  1251 ;;         _DelayDs
  1252 ;;   _Mode_2
  1253 ;;     _LightWithSensController
  1254 ;;       _DarknessCheck
  1255 ;;         _AnalogValue
  1256 ;;           _DelayDs
  1257 ;;       _timerFunction
  1258 ;;   _Mode_4
  1259 ;;     _TransmittString
  1260 ;;       _timerFunction
  1261 ;;       _SetRFMode
  1262 ;;         _RegisterRead
  1263 ;;           _WriteSPI
  1264 ;;           _ReadSPI
  1265 ;;             _WriteSPI
  1266 ;;           _RegisterSet (ARG)
  1267 ;;             _WriteSPI
  1268 ;;             _ReadSPI (ARG)
  1269 ;;               _WriteSPI
  1270 ;;         _RegisterSet
  1271 ;;           _WriteSPI
  1272 ;;           _ReadSPI (ARG)
  1273 ;;             _WriteSPI
  1274 ;;       _RegisterRead
  1275 ;;         _WriteSPI
  1276 ;;         _ReadSPI
  1277 ;;           _WriteSPI
  1278 ;;         _RegisterSet (ARG)
  1279 ;;           _WriteSPI
  1280 ;;           _ReadSPI (ARG)
  1281 ;;             _WriteSPI
  1282 ;;       _RegisterSet
  1283 ;;         _WriteSPI
  1284 ;;         _ReadSPI (ARG)
  1285 ;;           _WriteSPI
  1286 ;;       _FindChannel
  1287 ;;         _RegisterSet
  1288 ;;           _WriteSPI
  1289 ;;           _ReadSPI (ARG)
  1290 ;;             _WriteSPI
  1291 ;;         _RegisterRead
  1292 ;;           _WriteSPI
  1293 ;;           _ReadSPI
  1294 ;;             _WriteSPI
  1295 ;;           _RegisterSet (ARG)
  1296 ;;             _WriteSPI
  1297 ;;             _ReadSPI (ARG)
  1298 ;;               _WriteSPI
  1299 ;;         _SetRFMode
  1300 ;;           _RegisterRead
  1301 ;;             _WriteSPI
  1302 ;;             _ReadSPI
  1303 ;;               _WriteSPI
  1304 ;;             _RegisterSet (ARG)
  1305 ;;               _WriteSPI
  1306 ;;               _ReadSPI (ARG)
  1307 ;;                 _WriteSPI
  1308 ;;           _RegisterSet
  1309 ;;             _WriteSPI
  1310 ;;             _ReadSPI (ARG)
  1311 ;;               _WriteSPI
  1312 ;;       _WriteFIFO
  1313 ;;         _WriteSPI
  1314 ;;     _LightWithSensController
  1315 ;;       _DarknessCheck
  1316 ;;         _AnalogValue
  1317 ;;           _DelayDs
  1318 ;;       _timerFunction
  1319 ;;   _Mode_5
  1320 ;;     _TransmittString
  1321 ;;       _timerFunction
  1322 ;;       _SetRFMode
  1323 ;;         _RegisterRead
  1324 ;;           _WriteSPI
  1325 ;;           _ReadSPI
  1326 ;;             _WriteSPI
  1327 ;;           _RegisterSet (ARG)
  1328 ;;             _WriteSPI
  1329 ;;             _ReadSPI (ARG)
  1330 ;;               _WriteSPI
  1331 ;;         _RegisterSet
  1332 ;;           _WriteSPI
  1333 ;;           _ReadSPI (ARG)
  1334 ;;             _WriteSPI
  1335 ;;       _RegisterRead
  1336 ;;         _WriteSPI
  1337 ;;         _ReadSPI
  1338 ;;           _WriteSPI
  1339 ;;         _RegisterSet (ARG)
  1340 ;;           _WriteSPI
  1341 ;;           _ReadSPI (ARG)
  1342 ;;             _WriteSPI
  1343 ;;       _RegisterSet
  1344 ;;         _WriteSPI
  1345 ;;         _ReadSPI (ARG)
  1346 ;;           _WriteSPI
  1347 ;;       _FindChannel
  1348 ;;         _RegisterSet
  1349 ;;           _WriteSPI
  1350 ;;           _ReadSPI (ARG)
  1351 ;;             _WriteSPI
  1352 ;;         _RegisterRead
  1353 ;;           _WriteSPI
  1354 ;;           _ReadSPI
  1355 ;;             _WriteSPI
  1356 ;;           _RegisterSet (ARG)
  1357 ;;             _WriteSPI
  1358 ;;             _ReadSPI (ARG)
  1359 ;;               _WriteSPI
  1360 ;;         _SetRFMode
  1361 ;;           _RegisterRead
  1362 ;;             _WriteSPI
  1363 ;;             _ReadSPI
  1364 ;;               _WriteSPI
  1365 ;;             _RegisterSet (ARG)
  1366 ;;               _WriteSPI
  1367 ;;               _ReadSPI (ARG)
  1368 ;;                 _WriteSPI
  1369 ;;           _RegisterSet
  1370 ;;             _WriteSPI
  1371 ;;             _ReadSPI (ARG)
  1372 ;;               _WriteSPI
  1373 ;;       _WriteFIFO
  1374 ;;         _WriteSPI
  1375 ;;     _LightWithSensController
  1376 ;;       _DarknessCheck
  1377 ;;         _AnalogValue
  1378 ;;           _DelayDs
  1379 ;;       _timerFunction
  1380 ;;   _TransiverToReceive
  1381 ;;     _timerFunction
  1382 ;;     _SetRFMode
  1383 ;;       _RegisterRead
  1384 ;;         _WriteSPI
  1385 ;;         _ReadSPI
  1386 ;;           _WriteSPI
  1387 ;;         _RegisterSet (ARG)
  1388 ;;           _WriteSPI
  1389 ;;           _ReadSPI (ARG)
  1390 ;;             _WriteSPI
  1391 ;;       _RegisterSet
  1392 ;;         _WriteSPI
  1393 ;;         _ReadSPI (ARG)
  1394 ;;           _WriteSPI
  1395 ;;     _RegisterRead
  1396 ;;       _WriteSPI
  1397 ;;       _ReadSPI
  1398 ;;         _WriteSPI
  1399 ;;       _RegisterSet (ARG)
  1400 ;;         _WriteSPI
  1401 ;;         _ReadSPI (ARG)
  1402 ;;           _WriteSPI
  1403 ;;     _RegisterSet
  1404 ;;       _WriteSPI
  1405 ;;       _ReadSPI (ARG)
  1406 ;;         _WriteSPI
  1407 ;;     _FindChannel
  1408 ;;       _RegisterSet
  1409 ;;         _WriteSPI
  1410 ;;         _ReadSPI (ARG)
  1411 ;;           _WriteSPI
  1412 ;;       _RegisterRead
  1413 ;;         _WriteSPI
  1414 ;;         _ReadSPI
  1415 ;;           _WriteSPI
  1416 ;;         _RegisterSet (ARG)
  1417 ;;           _WriteSPI
  1418 ;;           _ReadSPI (ARG)
  1419 ;;             _WriteSPI
  1420 ;;       _SetRFMode
  1421 ;;         _RegisterRead
  1422 ;;           _WriteSPI
  1423 ;;           _ReadSPI
  1424 ;;             _WriteSPI
  1425 ;;           _RegisterSet (ARG)
  1426 ;;             _WriteSPI
  1427 ;;             _ReadSPI (ARG)
  1428 ;;               _WriteSPI
  1429 ;;         _RegisterSet
  1430 ;;           _WriteSPI
  1431 ;;           _ReadSPI (ARG)
  1432 ;;             _WriteSPI
  1433 ;;   _TransiverReadFIFO
  1434 ;;     _timerFunction
  1435 ;;     _SetRFMode
  1436 ;;       _RegisterRead
  1437 ;;         _WriteSPI
  1438 ;;         _ReadSPI
  1439 ;;           _WriteSPI
  1440 ;;         _RegisterSet (ARG)
  1441 ;;           _WriteSPI
  1442 ;;           _ReadSPI (ARG)
  1443 ;;             _WriteSPI
  1444 ;;       _RegisterSet
  1445 ;;         _WriteSPI
  1446 ;;         _ReadSPI (ARG)
  1447 ;;           _WriteSPI
  1448 ;;     _ReadFIFO
  1449 ;;       _ReadSPI
  1450 ;;         _WriteSPI
  1451 ;;     _TransmittedDataHandler
  1452 ;;       _strstr
  1453 ;;         _strlen
  1454 ;;         _strncmp
  1455 ;;           _strlen (ARG)
  1456 ;;         _strchr
  1457 ;;       _OperationMode
  1458 ;;       _DelayDs
  1459 ;;       _AnalogValue
  1460 ;;         _DelayDs
  1461 ;;       _TransmittString
  1462 ;;         _timerFunction
  1463 ;;         _SetRFMode
  1464 ;;           _RegisterRead
  1465 ;;             _WriteSPI
  1466 ;;             _ReadSPI
  1467 ;;               _WriteSPI
  1468 ;;             _RegisterSet (ARG)
  1469 ;;               _WriteSPI
  1470 ;;               _ReadSPI (ARG)
  1471 ;;                 _WriteSPI
  1472 ;;           _RegisterSet
  1473 ;;             _WriteSPI
  1474 ;;             _ReadSPI (ARG)
  1475 ;;               _WriteSPI
  1476 ;;         _RegisterRead
  1477 ;;           _WriteSPI
  1478 ;;           _ReadSPI
  1479 ;;             _WriteSPI
  1480 ;;           _RegisterSet (ARG)
  1481 ;;             _WriteSPI
  1482 ;;             _ReadSPI (ARG)
  1483 ;;               _WriteSPI
  1484 ;;         _RegisterSet
  1485 ;;           _WriteSPI
  1486 ;;           _ReadSPI (ARG)
  1487 ;;             _WriteSPI
  1488 ;;         _FindChannel
  1489 ;;           _RegisterSet
  1490 ;;             _WriteSPI
  1491 ;;             _ReadSPI (ARG)
  1492 ;;               _WriteSPI
  1493 ;;           _RegisterRead
  1494 ;;             _WriteSPI
  1495 ;;             _ReadSPI
  1496 ;;               _WriteSPI
  1497 ;;             _RegisterSet (ARG)
  1498 ;;               _WriteSPI
  1499 ;;               _ReadSPI (ARG)
  1500 ;;                 _WriteSPI
  1501 ;;           _SetRFMode
  1502 ;;             _RegisterRead
  1503 ;;               _WriteSPI
  1504 ;;               _ReadSPI
  1505 ;;                 _WriteSPI
  1506 ;;               _RegisterSet (ARG)
  1507 ;;                 _WriteSPI
  1508 ;;                 _ReadSPI (ARG)
  1509 ;;                   _WriteSPI
  1510 ;;             _RegisterSet
  1511 ;;               _WriteSPI
  1512 ;;               _ReadSPI (ARG)
  1513 ;;                 _WriteSPI
  1514 ;;         _WriteFIFO
  1515 ;;           _WriteSPI
  1516 ;;       _DarknessCheck
  1517 ;;         _AnalogValue
  1518 ;;           _DelayDs
  1519 ;;
  1520 ;; _tc_int (ROOT)
  1521 ;;   i1_OperationMode
  1522 ;;   _TimerCounter
  1523 ;;
  1524                           
  1525 ;; Address spaces:
  1526                           
  1527 ;;Name               Size   Autos  Total    Cost      Usage
  1528 ;;BANK3               60      0      28       9       41.7%
  1529 ;;BITBANK3            60      0       0       8        0.0%
  1530 ;;SFR3                 0      0       0       4        0.0%
  1531 ;;BITSFR3              0      0       0       4        0.0%
  1532 ;;BANK2               60      0       0      11        0.0%
  1533 ;;BITBANK2            60      0       0      10        0.0%
  1534 ;;SFR2                 0      0       0       5        0.0%
  1535 ;;BITSFR2              0      0       0       5        0.0%
  1536 ;;SFR1                 0      0       0       2        0.0%
  1537 ;;BITSFR1              0      0       0       2        0.0%
  1538 ;;BANK1               50      0      2D       7       56.3%
  1539 ;;BITBANK1            50      0       0       6        0.0%
  1540 ;;CODE                 0      0       0       0        0.0%
  1541 ;;DATA                 0      0      BF      12        0.0%
  1542 ;;ABS                  0      0      B3       3        0.0%
  1543 ;;NULL                 0      0       0       0        0.0%
  1544 ;;STACK                0      0       C       2        0.0%
  1545 ;;BANK0               50     3D      50       5      100.0%
  1546 ;;BITBANK0            50      0       0       4        0.0%
  1547 ;;SFR0                 0      0       0       1        0.0%
  1548 ;;BITSFR0              0      0       0       1        0.0%
  1549 ;;COMMON               E      C       E       1      100.0%
  1550 ;;BITCOMMON            E      0       0       0        0.0%
  1551 ;;EEDATA             100      0       0       0        0.0%
  1552                           
  1553                           	global	_main
  1554                           psect	maintext,global,class=CODE,delta=2
  1555                           global __pmaintext
  1556  06B1                     __pmaintext:
  1557                           
  1558 ;; *************** function _main *****************
  1559 ;; Defined at:
  1560 ;;		line 117 in file "C:\Users\Seba\Documents\Projekt\Bustel\Bustel_Project\Bustel Card v10.0 code v1.7.1\Main Card V10.
       0.c"
  1561 ;; Parameters:    Size  Location     Type
  1562 ;;		None
  1563 ;; Auto vars:     Size  Location     Type
  1564 ;;		None
  1565 ;; Return value:  Size  Location     Type
  1566 ;;		None               void
  1567 ;; Registers used:
  1568 ;;		wreg, fsr0l, fsr0h, status,2, status,0, btemp+1, pclath, cstack
  1569 ;; Tracked objects:
  1570 ;;		On entry : 17F/0
  1571 ;;		On exit  : 0/0
  1572 ;;		Unchanged: 0/0
  1573 ;; Data sizes:     COMMON   BANK0   BANK1   BANK3   BANK2
  1574 ;;      Params:         0       0       0       0       0
  1575 ;;      Locals:         0       0       0       0       0
  1576 ;;      Temps:          0       3       0       0       0
  1577 ;;      Totals:         0       3       0       0       0
  1578 ;;Total ram usage:        3 bytes
  1579 ;; Hardware stack levels required when called:   10
  1580 ;; This function calls:
  1581 ;;		_init
  1582 ;;		_TransiverInit
  1583 ;;		_OperationMode
  1584 ;;		_Mode_0
  1585 ;;		_Mode_1
  1586 ;;		_Mode_2
  1587 ;;		_Mode_4
  1588 ;;		_Mode_5
  1589 ;;		_TransiverToReceive
  1590 ;;		_TransiverReadFIFO
  1591 ;; This function is called by:
  1592 ;;		Startup code after reset
  1593 ;; This function uses a non-reentrant model
  1594 ;;
  1595                           psect	maintext
  1596                           	file	"C:\Users\Seba\Documents\Projekt\Bustel\Bustel_Project\Bustel Card v10.0 code v1.7
                                 .1\Main Card V10.0.c"
  1597                           	line	117
  1598                           	global	__size_of_main
  1599  008B                     	__size_of_main	equ	__end_of_main-_main
  1600                           	
  1601  06B1                     _main:	
  1602 ;; hardware stack exceeded
  1603                           	opt	stack 0
  1604                           ; Regs used in _main: [wreg-fsr0h+status,2+status,0+btemp+1+pclath+cstack]
  1605                           	line	119
  1606                           	
  1607  06B1                     l4768:	
  1608                           ;Main Card V10.0.c: 119: init();
  1609  06B1  120A  158A  2623   	fcall	_init
              120A  118A         
  1610                           	line	120
  1611                           	
  1612  06B6                     l4770:	
  1613                           ;Main Card V10.0.c: 120: _delay((unsigned long)((800)*(4000000/4000.0)));
  1614                           	opt asmopt_off
  1615  06B6  3005               movlw  5
  1616  06B7  1283               	bcf	status, 5	;RP0=0, select bank0
  1617  06B8  1303               	bcf	status, 6	;RP1=0, select bank0
  1618  06B9  00DC               movwf	((??_main+0)+0+2),f
  1619  06BA  300F               movlw	15
  1620  06BB  00DB               movwf	((??_main+0)+0+1),f
  1621  06BC  30F4               	movlw	244
  1622  06BD  00DA               movwf	((??_main+0)+0),f
  1623  06BE                     u4027:
  1624  06BE  0BDA               	decfsz	((??_main+0)+0),f
  1625  06BF  2EBE               	goto	u4027
  1626  06C0  0BDB               	decfsz	((??_main+0)+0+1),f
  1627  06C1  2EBE               	goto	u4027
  1628  06C2  0BDC               	decfsz	((??_main+0)+0+2),f
  1629  06C3  2EBE               	goto	u4027
  1630                           opt asmopt_on
  1631                           
  1632                           	line	121
  1633                           	
  1634  06C4                     l4772:	
  1635                           ;Main Card V10.0.c: 121: TransiverInit();
  1636  06C4  120A  118A  22FC   	fcall	_TransiverInit
              120A  118A         
  1637  06C9  2ECA               	goto	l4774
  1638                           	line	123
  1639                           ;Main Card V10.0.c: 123: while(1)
  1640                           	
  1641  06CA                     l1059:	
  1642                           	line	125
  1643                           	
  1644  06CA                     l4774:	
  1645                           ;Main Card V10.0.c: 124: {
  1646                           ;Main Card V10.0.c: 125: if(OperationMode() == 0)
  1647  06CA  120A  158A  23D7   	fcall	_OperationMode
              120A  118A         
  1648  06CF  3800               	iorlw	0
  1649  06D0  1D03               	skipz
  1650  06D1  2ED3               	goto	u3941
  1651  06D2  2ED4               	goto	u3940
  1652  06D3                     u3941:
  1653  06D3  2EDA               	goto	l4778
  1654  06D4                     u3940:
  1655                           	line	127
  1656                           	
  1657  06D4                     l4776:	
  1658                           ;Main Card V10.0.c: 126: {
  1659                           ;Main Card V10.0.c: 127: Mode_0();
  1660  06D4  120A  158A  23BF   	fcall	_Mode_0
              120A  118A         
  1661  06D9  2EDA               	goto	l4778
  1662                           	line	128
  1663                           	
  1664  06DA                     l1060:	
  1665                           	line	129
  1666                           	
  1667  06DA                     l4778:	
  1668                           ;Main Card V10.0.c: 128: }
  1669                           ;Main Card V10.0.c: 129: if(OperationMode() == 1)
  1670  06DA  120A  158A  23D7   	fcall	_OperationMode
              120A  118A         
  1671  06DF  3A01               	xorlw	01h
  1672  06E0  1D03               	skipz
  1673  06E1  2EE3               	goto	u3951
  1674  06E2  2EE4               	goto	u3950
  1675  06E3                     u3951:
  1676  06E3  2EEA               	goto	l4782
  1677  06E4                     u3950:
  1678                           	line	131
  1679                           	
  1680  06E4                     l4780:	
  1681                           ;Main Card V10.0.c: 130: {
  1682                           ;Main Card V10.0.c: 131: Mode_1();
  1683  06E4  120A  158A  24B7   	fcall	_Mode_1
              120A  118A         
  1684  06E9  2EEA               	goto	l4782
  1685                           	line	132
  1686                           	
  1687  06EA                     l1061:	
  1688                           	line	134
  1689                           	
  1690  06EA                     l4782:	
  1691                           ;Main Card V10.0.c: 132: }
  1692                           ;Main Card V10.0.c: 134: if(OperationMode() == 2)
  1693  06EA  120A  158A  23D7   	fcall	_OperationMode
              120A  118A         
  1694  06EF  3A02               	xorlw	02h
  1695  06F0  1D03               	skipz
  1696  06F1  2EF3               	goto	u3961
  1697  06F2  2EF4               	goto	u3960
  1698  06F3                     u3961:
  1699  06F3  2EFA               	goto	l4786
  1700  06F4                     u3960:
  1701                           	line	136
  1702                           	
  1703  06F4                     l4784:	
  1704                           ;Main Card V10.0.c: 135: {
  1705                           ;Main Card V10.0.c: 136: Mode_2();
  1706  06F4  120A  158A  23EF   	fcall	_Mode_2
              120A  118A         
  1707  06F9  2EFA               	goto	l4786
  1708                           	line	137
  1709                           	
  1710  06FA                     l1062:	
  1711                           	line	139
  1712                           	
  1713  06FA                     l4786:	
  1714                           ;Main Card V10.0.c: 137: }
  1715                           ;Main Card V10.0.c: 139: if(OperationMode() == 4)
  1716  06FA  120A  158A  23D7   	fcall	_OperationMode
              120A  118A         
  1717  06FF  3A04               	xorlw	04h
  1718  0700  1D03               	skipz
  1719  0701  2F03               	goto	u3971
  1720  0702  2F04               	goto	u3970
  1721  0703                     u3971:
  1722  0703  2F0A               	goto	l4790
  1723  0704                     u3970:
  1724                           	line	141
  1725                           	
  1726  0704                     l4788:	
  1727                           ;Main Card V10.0.c: 140: {
  1728                           ;Main Card V10.0.c: 141: Mode_4();
  1729  0704  120A  158A  2434   	fcall	_Mode_4
              120A  118A         
  1730  0709  2F0A               	goto	l4790
  1731                           	line	142
  1732                           	
  1733  070A                     l1063:	
  1734                           	line	144
  1735                           	
  1736  070A                     l4790:	
  1737                           ;Main Card V10.0.c: 142: }
  1738                           ;Main Card V10.0.c: 144: if(OperationMode() == 5)
  1739  070A  120A  158A  23D7   	fcall	_OperationMode
              120A  118A         
  1740  070F  3A05               	xorlw	05h
  1741  0710  1D03               	skipz
  1742  0711  2F13               	goto	u3981
  1743  0712  2F14               	goto	u3980
  1744  0713                     u3981:
  1745  0713  2F1A               	goto	l4794
  1746  0714                     u3980:
  1747                           	line	146
  1748                           	
  1749  0714                     l4792:	
  1750                           ;Main Card V10.0.c: 145: {
  1751                           ;Main Card V10.0.c: 146: Mode_5();
  1752  0714  120A  158A  244A   	fcall	_Mode_5
              120A  118A         
  1753  0719  2F1A               	goto	l4794
  1754                           	line	147
  1755                           	
  1756  071A                     l1064:	
  1757                           	line	151
  1758                           	
  1759  071A                     l4794:	
  1760                           ;Main Card V10.0.c: 147: }
  1761                           ;Main Card V10.0.c: 151: if(!bTransiverModeReceive)
  1762  071A  1283               	bcf	status, 5	;RP0=0, select bank0
  1763  071B  1303               	bcf	status, 6	;RP1=0, select bank0
  1764  071C  08EB               	movf	(_bTransiverModeReceive),f
  1765  071D  1D03               	skipz
  1766  071E  2F20               	goto	u3991
  1767  071F  2F21               	goto	u3990
  1768  0720                     u3991:
  1769  0720  2F27               	goto	l4798
  1770  0721                     u3990:
  1771                           	line	152
  1772                           	
  1773  0721                     l4796:	
  1774                           ;Main Card V10.0.c: 152: TransiverToReceive();
  1775  0721  120A  158A  2729   	fcall	_TransiverToReceive
              120A  118A         
  1776  0726  2F27               	goto	l4798
  1777                           	
  1778  0727                     l1065:	
  1779                           	line	153
  1780                           	
  1781  0727                     l4798:	
  1782                           ;Main Card V10.0.c: 153: if(PORTBbits.RB4 && bTransiverModeReceive)
  1783  0727  1283               	bcf	status, 5	;RP0=0, select bank0
  1784  0728  1303               	bcf	status, 6	;RP1=0, select bank0
  1785  0729  1E06               	btfss	(6),4	;volatile
  1786  072A  2F2C               	goto	u4001
  1787  072B  2F2D               	goto	u4000
  1788  072C                     u4001:
  1789  072C  2ECA               	goto	l4774
  1790  072D                     u4000:
  1791                           	
  1792  072D                     l4800:	
  1793  072D  086B               	movf	(_bTransiverModeReceive),w
  1794  072E  1D03               	skipz
  1795  072F  2F31               	goto	u4010
  1796  0730  2ECA               	goto	l4774
  1797  0731                     u4010:
  1798                           	line	154
  1799                           	
  1800  0731                     l4802:	
  1801                           ;Main Card V10.0.c: 154: TransiverReadFIFO();
  1802  0731  120A  118A  273C   	fcall	_TransiverReadFIFO
              120A  118A         
  1803  0736  2ECA               	goto	l4774
  1804                           	
  1805  0737                     l1066:	
  1806  0737  2ECA               	goto	l4774
  1807                           	line	156
  1808                           	
  1809  0738                     l1067:	
  1810                           	line	123
  1811  0738  2ECA               	goto	l4774
  1812                           	
  1813  0739                     l1068:	
  1814                           	line	158
  1815                           	
  1816  0739                     l1069:	
  1817                           	global	start
  1818  0739  120A  118A  2812   	ljmp	start
  1819                           	opt stack 0
  1820                           GLOBAL	__end_of_main
  1821  073C                     	__end_of_main:
  1822 ;; =============== function _main ends ============
  1823                           
  1824                           	signat	_main,88
  1825                           	global	_TransiverReadFIFO
  1826                           psect	text812,local,class=CODE,delta=2
  1827                           global __ptext812
  1828  073C                     __ptext812:
  1829                           
  1830 ;; *************** function _TransiverReadFIFO *****************
  1831 ;; Defined at:
  1832 ;;		line 190 in file "C:\Users\Seba\Documents\Projekt\Bustel\Bustel_Project\Bustel Card v10.0 code v1.7.1\Main Card V10.
       0.c"
  1833 ;; Parameters:    Size  Location     Type
  1834 ;;		None
  1835 ;; Auto vars:     Size  Location     Type
  1836 ;;  j               2   56[BANK0 ] int 
  1837 ;;  i               2   54[BANK0 ] int 
  1838 ;; Return value:  Size  Location     Type
  1839 ;;		None               void
  1840 ;; Registers used:
  1841 ;;		wreg, fsr0l, fsr0h, status,2, status,0, btemp+1, pclath, cstack
  1842 ;; Tracked objects:
  1843 ;;		On entry : 0/0
  1844 ;;		On exit  : 0/0
  1845 ;;		Unchanged: 0/0
  1846 ;; Data sizes:     COMMON   BANK0   BANK1   BANK3   BANK2
  1847 ;;      Params:         0       0       0       0       0
  1848 ;;      Locals:         0       4       0       0       0
  1849 ;;      Temps:          0       2       0       0       0
  1850 ;;      Totals:         0       6       0       0       0
  1851 ;;Total ram usage:        6 bytes
  1852 ;; Hardware stack levels used:    1
  1853 ;; Hardware stack levels required when called:    9
  1854 ;; This function calls:
  1855 ;;		_timerFunction
  1856 ;;		_SetRFMode
  1857 ;;		_ReadFIFO
  1858 ;;		_TransmittedDataHandler
  1859 ;; This function is called by:
  1860 ;;		_main
  1861 ;; This function uses a non-reentrant model
  1862 ;;
  1863                           psect	text812
  1864                           	file	"C:\Users\Seba\Documents\Projekt\Bustel\Bustel_Project\Bustel Card v10.0 code v1.7
                                 .1\Main Card V10.0.c"
  1865                           	line	190
  1866                           	global	__size_of_TransiverReadFIFO
  1867  0080                     	__size_of_TransiverReadFIFO	equ	__end_of_TransiverReadFIFO-_TransiverReadFIFO
  1868                           	
  1869  073C                     _TransiverReadFIFO:	
  1870 ;; hardware stack exceeded
  1871                           	opt	stack 0
  1872                           ; Regs used in _TransiverReadFIFO: [wreg-fsr0h+status,2+status,0+btemp+1+pclath+cstack]
  1873                           	line	191
  1874                           	
  1875  073C                     l4736:	
  1876                           ;Main Card V10.0.c: 191: timerFunction(3, 5);
  1877  073C  3003               	movlw	low(03h)
  1878  073D  1283               	bcf	status, 5	;RP0=0, select bank0
  1879  073E  1303               	bcf	status, 6	;RP1=0, select bank0
  1880  073F  00A0               	movwf	(?_timerFunction)
  1881  0740  3000               	movlw	high(03h)
  1882  0741  00A1               	movwf	((?_timerFunction))+1
  1883  0742  3005               	movlw	low(05h)
  1884  0743  00A2               	movwf	0+(?_timerFunction)+02h
  1885  0744  3000               	movlw	high(05h)
  1886  0745  00A3               	movwf	(0+(?_timerFunction)+02h)+1
  1887  0746  120A  158A  2421   	fcall	_timerFunction
              120A  118A         
  1888                           	line	193
  1889                           ;Main Card V10.0.c: 193: SetRFMode(0x20);
  1890  074B  3020               	movlw	(020h)
  1891  074C  120A  158A  2790   	fcall	_SetRFMode
              120A  118A         
  1892                           	line	194
  1893                           	
  1894  0751                     l4738:	
  1895                           ;Main Card V10.0.c: 194: bTransiverModeReceive = 0;
  1896  0751  1283               	bcf	status, 5	;RP0=0, select bank0
  1897  0752  1303               	bcf	status, 6	;RP1=0, select bank0
  1898  0753  01EB               	clrf	(_bTransiverModeReceive)
  1899                           	line	195
  1900                           	
  1901  0754                     l4740:	
  1902                           ;Main Card V10.0.c: 195: int i = 0;
  1903  0754  01D6               	clrf	(TransiverReadFIFO@i)
  1904  0755  01D7               	clrf	(TransiverReadFIFO@i+1)
  1905                           	line	196
  1906                           	
  1907  0756                     l4742:	
  1908                           ;Main Card V10.0.c: 196: for (int j = 0; j < 30; ++j)
  1909  0756  01D8               	clrf	(TransiverReadFIFO@j)
  1910  0757  01D9               	clrf	(TransiverReadFIFO@j+1)
  1911                           	
  1912  0758                     l4744:	
  1913  0758  0859               	movf	(TransiverReadFIFO@j+1),w
  1914  0759  3A80               	xorlw	80h
  1915  075A  00FF               	movwf	btemp+1
  1916  075B  3080               	movlw	(high(01Eh))^80h
  1917  075C  027F               	subwf	btemp+1,w
  1918  075D  1D03               	skipz
  1919  075E  2F61               	goto	u3905
  1920  075F  301E               	movlw	low(01Eh)
  1921  0760  0258               	subwf	(TransiverReadFIFO@j),w
  1922  0761                     u3905:
  1923                           
  1924  0761  1C03               	skipc
  1925  0762  2F64               	goto	u3901
  1926  0763  2F65               	goto	u3900
  1927  0764                     u3901:
  1928  0764  2F67               	goto	l4748
  1929  0765                     u3900:
  1930  0765  2F98               	goto	l4758
  1931                           	
  1932  0766                     l4746:	
  1933  0766  2F98               	goto	l4758
  1934                           	line	197
  1935                           	
  1936  0767                     l1079:	
  1937                           	line	198
  1938                           	
  1939  0767                     l4748:	
  1940                           ;Main Card V10.0.c: 197: {
  1941                           ;Main Card V10.0.c: 198: TransmittedString[j] = 0;
  1942  0767  1283               	bcf	status, 5	;RP0=0, select bank0
  1943  0768  1303               	bcf	status, 6	;RP1=0, select bank0
  1944  0769  0858               	movf	(TransiverReadFIFO@j),w
  1945  076A  3EAF               	addlw	_TransmittedString&0ffh
  1946  076B  0084               	movwf	fsr0
  1947  076C  1383               	bcf	status, 7	;select IRP bank1
  1948  076D  0180               	clrf	indf
  1949                           	line	196
  1950                           	
  1951  076E                     l4750:	
  1952  076E  3001               	movlw	low(01h)
  1953  076F  07D8               	addwf	(TransiverReadFIFO@j),f
  1954  0770  1803               	skipnc
  1955  0771  0AD9               	incf	(TransiverReadFIFO@j+1),f
  1956  0772  3000               	movlw	high(01h)
  1957  0773  07D9               	addwf	(TransiverReadFIFO@j+1),f
  1958                           	
  1959  0774                     l4752:	
  1960  0774  0859               	movf	(TransiverReadFIFO@j+1),w
  1961  0775  3A80               	xorlw	80h
  1962  0776  00FF               	movwf	btemp+1
  1963  0777  3080               	movlw	(high(01Eh))^80h
  1964  0778  027F               	subwf	btemp+1,w
  1965  0779  1D03               	skipz
  1966  077A  2F7D               	goto	u3915
  1967  077B  301E               	movlw	low(01Eh)
  1968  077C  0258               	subwf	(TransiverReadFIFO@j),w
  1969  077D                     u3915:
  1970                           
  1971  077D  1C03               	skipc
  1972  077E  2F80               	goto	u3911
  1973  077F  2F81               	goto	u3910
  1974  0780                     u3911:
  1975  0780  2F67               	goto	l4748
  1976  0781                     u3910:
  1977  0781  2F98               	goto	l4758
  1978                           	
  1979  0782                     l1080:	
  1980                           	line	200
  1981                           ;Main Card V10.0.c: 199: }
  1982                           ;Main Card V10.0.c: 200: while((PORTBbits.RB3)&&(!bTimerComplete[3]))
  1983  0782  2F98               	goto	l4758
  1984                           	
  1985  0783                     l1082:	
  1986                           	line	202
  1987                           	
  1988  0783                     l4754:	
  1989                           ;Main Card V10.0.c: 201: {
  1990                           ;Main Card V10.0.c: 202: TransmittedString[i] = ReadFIFO();
  1991  0783  120A  158A  2410   	fcall	_ReadFIFO
              120A  118A         
  1992  0788  1283               	bcf	status, 5	;RP0=0, select bank0
  1993  0789  1303               	bcf	status, 6	;RP1=0, select bank0
  1994  078A  00D4               	movwf	(??_TransiverReadFIFO+0)+0
  1995  078B  0856               	movf	(TransiverReadFIFO@i),w
  1996  078C  3EAF               	addlw	_TransmittedString&0ffh
  1997  078D  0084               	movwf	fsr0
  1998  078E  0854               	movf	(??_TransiverReadFIFO+0)+0,w
  1999  078F  1383               	bcf	status, 7	;select IRP bank1
  2000  0790  0080               	movwf	indf
  2001                           	line	203
  2002                           	
  2003  0791                     l4756:	
  2004                           ;Main Card V10.0.c: 203: i++;
  2005  0791  3001               	movlw	low(01h)
  2006  0792  07D6               	addwf	(TransiverReadFIFO@i),f
  2007  0793  1803               	skipnc
  2008  0794  0AD7               	incf	(TransiverReadFIFO@i+1),f
  2009  0795  3000               	movlw	high(01h)
  2010  0796  07D7               	addwf	(TransiverReadFIFO@i+1),f
  2011  0797  2F98               	goto	l4758
  2012                           	line	204
  2013                           	
  2014  0798                     l1081:	
  2015                           	line	200
  2016                           	
  2017  0798                     l4758:	
  2018  0798  1283               	bcf	status, 5	;RP0=0, select bank0
  2019  0799  1303               	bcf	status, 6	;RP1=0, select bank0
  2020  079A  1D86               	btfss	(6),3	;volatile
  2021  079B  2F9D               	goto	u3921
  2022  079C  2F9E               	goto	u3920
  2023  079D                     u3921:
  2024  079D  2FA6               	goto	l4762
  2025  079E                     u3920:
  2026                           	
  2027  079E                     l4760:	
  2028  079E  1683               	bsf	status, 5	;RP0=1, select bank1
  2029  079F  1303               	bcf	status, 6	;RP1=0, select bank1
  2030  07A0  082D               	movf	0+(_bTimerComplete)^080h+03h,w
  2031  07A1  1D03               	skipz
  2032  07A2  2FA4               	goto	u3930
  2033  07A3  2F83               	goto	l4754
  2034  07A4                     u3930:
  2035  07A4  2FA6               	goto	l4762
  2036                           	
  2037  07A5                     l1084:	
  2038  07A5  2FA6               	goto	l4762
  2039                           	
  2040  07A6                     l1085:	
  2041                           	line	206
  2042                           	
  2043  07A6                     l4762:	
  2044                           ;Main Card V10.0.c: 204: }
  2045                           ;Main Card V10.0.c: 206: _delay((unsigned long)((10)*(4000000/4000.0)));
  2046                           	opt asmopt_off
  2047  07A6  300D               movlw	13
  2048  07A7  1283               	bcf	status, 5	;RP0=0, select bank0
  2049  07A8  00D5               movwf	((??_TransiverReadFIFO+0)+0+1),f
  2050  07A9  30FB               	movlw	251
  2051  07AA  00D4               movwf	((??_TransiverReadFIFO+0)+0),f
  2052  07AB                     u4037:
  2053  07AB  0BD4               	decfsz	((??_TransiverReadFIFO+0)+0),f
  2054  07AC  2FAB               	goto	u4037
  2055  07AD  0BD5               	decfsz	((??_TransiverReadFIFO+0)+0+1),f
  2056  07AE  2FAB               	goto	u4037
  2057  07AF  2FB0               	nop2
  2058                           opt asmopt_on
  2059                           
  2060                           	line	207
  2061                           	
  2062  07B0                     l4764:	
  2063                           ;Main Card V10.0.c: 207: SetRFMode(0x00);
  2064  07B0  3000               	movlw	(0)
  2065  07B1  120A  158A  2790   	fcall	_SetRFMode
              120A  118A         
  2066                           	line	208
  2067                           	
  2068  07B6                     l4766:	
  2069                           ;Main Card V10.0.c: 208: TransmittedDataHandler();
  2070  07B6  120A  118A  2015   	fcall	_TransmittedDataHandler
              120A  118A         
  2071                           	line	209
  2072                           	
  2073  07BB                     l1086:	
  2074  07BB  0008               	return
  2075                           	opt stack 0
  2076                           GLOBAL	__end_of_TransiverReadFIFO
  2077  07BC                     	__end_of_TransiverReadFIFO:
  2078 ;; =============== function _TransiverReadFIFO ends ============
  2079                           
  2080                           	signat	_TransiverReadFIFO,88
  2081                           	global	_TransmittedDataHandler
  2082                           psect	text813,local,class=CODE,delta=2
  2083                           global __ptext813
  2084  0015                     __ptext813:
  2085                           
  2086 ;; *************** function _TransmittedDataHandler *****************
  2087 ;; Defined at:
  2088 ;;		line 211 in file "C:\Users\Seba\Documents\Projekt\Bustel\Bustel_Project\Bustel Card v10.0 code v1.7.1\Main Card V10.
       0.c"
  2089 ;; Parameters:    Size  Location     Type
  2090 ;;		None
  2091 ;; Auto vars:     Size  Location     Type
  2092 ;;  slask           8   44[BANK0 ] unsigned char [8]
  2093 ;;  slask           8   36[BANK0 ] unsigned char [8]
  2094 ;;  slask           8   28[BANK0 ] unsigned char [8]
  2095 ;; Return value:  Size  Location     Type
  2096 ;;		None               void
  2097 ;; Registers used:
  2098 ;;		wreg, fsr0l, fsr0h, status,2, status,0, btemp+1, pclath, cstack
  2099 ;; Tracked objects:
  2100 ;;		On entry : 0/0
  2101 ;;		On exit  : 0/0
  2102 ;;		Unchanged: 0/0
  2103 ;; Data sizes:     COMMON   BANK0   BANK1   BANK3   BANK2
  2104 ;;      Params:         0       0       0       0       0
  2105 ;;      Locals:         0      24       0       0       0
  2106 ;;      Temps:          0       1       0       0       0
  2107 ;;      Totals:         0      25       0       0       0
  2108 ;;Total ram usage:       25 bytes
  2109 ;; Hardware stack levels used:    1
  2110 ;; Hardware stack levels required when called:    8
  2111 ;; This function calls:
  2112 ;;		_strstr
  2113 ;;		_OperationMode
  2114 ;;		_DelayDs
  2115 ;;		_AnalogValue
  2116 ;;		_TransmittString
  2117 ;;		_DarknessCheck
  2118 ;; This function is called by:
  2119 ;;		_TransiverReadFIFO
  2120 ;; This function uses a non-reentrant model
  2121 ;;
  2122                           psect	text813
  2123                           	file	"C:\Users\Seba\Documents\Projekt\Bustel\Bustel_Project\Bustel Card v10.0 code v1.7
                                 .1\Main Card V10.0.c"
  2124                           	line	211
  2125                           	global	__size_of_TransmittedDataHandler
  2126  01E1                     	__size_of_TransmittedDataHandler	equ	__end_of_TransmittedDataHandler-_TransmittedDataHa
                                 ndler
  2127                           	
  2128  0015                     _TransmittedDataHandler:	
  2129 ;; hardware stack exceeded
  2130                           	opt	stack 0
  2131                           ; Regs used in _TransmittedDataHandler: [wreg-fsr0h+status,2+status,0+btemp+1+pclath+cst
                                 ack]
  2132                           	line	213
  2133                           	
  2134  0015                     l4644:	
  2135                           ;Main Card V10.0.c: 213: if((strstr(TransmittedString, "N1BLINK")) && (OperationMode() =
                                 = 6))
  2136  0015  3055               	movlw	((STR_1-__stringbase))&0ffh
  2137  0016  1283               	bcf	status, 5	;RP0=0, select bank0
  2138  0017  1303               	bcf	status, 6	;RP1=0, select bank0
  2139  0018  00BB               	movwf	(??_TransmittedDataHandler+0)+0
  2140  0019  083B               	movf	(??_TransmittedDataHandler+0)+0,w
  2141  001A  00B0               	movwf	(?_strstr)
  2142  001B  30AF               	movlw	(_TransmittedString)&0ffh
  2143  001C  120A  158A  25D1   	fcall	_strstr
              120A  118A         
  2144  0021  3A00               	xorlw	0
  2145  0022  1903               	skipnz
  2146  0023  2825               	goto	u3731
  2147  0024  2826               	goto	u3730
  2148  0025                     u3731:
  2149  0025  2842               	goto	l4654
  2150  0026                     u3730:
  2151                           	
  2152  0026                     l4646:	
  2153  0026  120A  158A  23D7   	fcall	_OperationMode
              120A  118A         
  2154  002B  3A06               	xorlw	06h
  2155  002C  1D03               	skipz
  2156  002D  282F               	goto	u3741
  2157  002E  2830               	goto	u3740
  2158  002F                     u3741:
  2159  002F  2842               	goto	l4654
  2160  0030                     u3740:
  2161                           	line	215
  2162                           	
  2163  0030                     l4648:	
  2164                           ;Main Card V10.0.c: 214: {
  2165                           ;Main Card V10.0.c: 215: intBlinkCycle = 1;
  2166  0030  3001               	movlw	low(01h)
  2167  0031  1283               	bcf	status, 5	;RP0=0, select bank0
  2168  0032  1303               	bcf	status, 6	;RP1=0, select bank0
  2169  0033  00DF               	movwf	(_intBlinkCycle)
  2170  0034  3000               	movlw	high(01h)
  2171  0035  00E0               	movwf	((_intBlinkCycle))+1
  2172                           	line	216
  2173                           	
  2174  0036                     l4650:	
  2175                           ;Main Card V10.0.c: 216: intBlinkCounter = 0;
  2176  0036  01FC               	clrf	(_intBlinkCounter)
  2177  0037  01FD               	clrf	(_intBlinkCounter+1)
  2178                           	line	217
  2179                           	
  2180  0038                     l4652:	
  2181                           ;Main Card V10.0.c: 217: DelayDs(100);
  2182  0038  3064               	movlw	low(064h)
  2183  0039  00A0               	movwf	(?_DelayDs)
  2184  003A  3000               	movlw	high(064h)
  2185  003B  00A1               	movwf	((?_DelayDs))+1
  2186  003C  120A  158A  24DE   	fcall	_DelayDs
              120A  118A         
  2187                           	line	218
  2188                           ;Main Card V10.0.c: 218: }
  2189  0041  29F5               	goto	l1120
  2190                           	line	219
  2191                           	
  2192  0042                     l1089:	
  2193                           	
  2194  0042                     l4654:	
  2195                           ;Main Card V10.0.c: 219: else if((strstr(TransmittedString, "N2BLINK")) && (OperationMod
                                 e() == 7))
  2196  0042  305D               	movlw	((STR_2-__stringbase))&0ffh
  2197  0043  1283               	bcf	status, 5	;RP0=0, select bank0
  2198  0044  1303               	bcf	status, 6	;RP1=0, select bank0
  2199  0045  00BB               	movwf	(??_TransmittedDataHandler+0)+0
  2200  0046  083B               	movf	(??_TransmittedDataHandler+0)+0,w
  2201  0047  00B0               	movwf	(?_strstr)
  2202  0048  30AF               	movlw	(_TransmittedString)&0ffh
  2203  0049  120A  158A  25D1   	fcall	_strstr
              120A  118A         
  2204  004E  3A00               	xorlw	0
  2205  004F  1903               	skipnz
  2206  0050  2852               	goto	u3751
  2207  0051  2853               	goto	u3750
  2208  0052                     u3751:
  2209  0052  286F               	goto	l4664
  2210  0053                     u3750:
  2211                           	
  2212  0053                     l4656:	
  2213  0053  120A  158A  23D7   	fcall	_OperationMode
              120A  118A         
  2214  0058  3A07               	xorlw	07h
  2215  0059  1D03               	skipz
  2216  005A  285C               	goto	u3761
  2217  005B  285D               	goto	u3760
  2218  005C                     u3761:
  2219  005C  286F               	goto	l4664
  2220  005D                     u3760:
  2221                           	line	221
  2222                           	
  2223  005D                     l4658:	
  2224                           ;Main Card V10.0.c: 220: {
  2225                           ;Main Card V10.0.c: 221: intBlinkCycle = 1;
  2226  005D  3001               	movlw	low(01h)
  2227  005E  1283               	bcf	status, 5	;RP0=0, select bank0
  2228  005F  1303               	bcf	status, 6	;RP1=0, select bank0
  2229  0060  00DF               	movwf	(_intBlinkCycle)
  2230  0061  3000               	movlw	high(01h)
  2231  0062  00E0               	movwf	((_intBlinkCycle))+1
  2232                           	line	222
  2233                           	
  2234  0063                     l4660:	
  2235                           ;Main Card V10.0.c: 222: intBlinkCounter = 0;
  2236  0063  01FC               	clrf	(_intBlinkCounter)
  2237  0064  01FD               	clrf	(_intBlinkCounter+1)
  2238                           	line	223
  2239                           	
  2240  0065                     l4662:	
  2241                           ;Main Card V10.0.c: 223: DelayDs(100);
  2242  0065  3064               	movlw	low(064h)
  2243  0066  00A0               	movwf	(?_DelayDs)
  2244  0067  3000               	movlw	high(064h)
  2245  0068  00A1               	movwf	((?_DelayDs))+1
  2246  0069  120A  158A  24DE   	fcall	_DelayDs
              120A  118A         
  2247                           	line	224
  2248                           ;Main Card V10.0.c: 224: }
  2249  006E  29F5               	goto	l1120
  2250                           	line	225
  2251                           	
  2252  006F                     l1091:	
  2253                           	
  2254  006F                     l4664:	
  2255                           ;Main Card V10.0.c: 225: else if((strstr(TransmittedString,"FLASHL")))
  2256  006F  3082               	movlw	((STR_3-__stringbase))&0ffh
  2257  0070  1283               	bcf	status, 5	;RP0=0, select bank0
  2258  0071  1303               	bcf	status, 6	;RP1=0, select bank0
  2259  0072  00BB               	movwf	(??_TransmittedDataHandler+0)+0
  2260  0073  083B               	movf	(??_TransmittedDataHandler+0)+0,w
  2261  0074  00B0               	movwf	(?_strstr)
  2262  0075  30AF               	movlw	(_TransmittedString)&0ffh
  2263  0076  120A  158A  25D1   	fcall	_strstr
              120A  118A         
  2264  007B  3A00               	xorlw	0
  2265  007C  1903               	skipnz
  2266  007D  287F               	goto	u3771
  2267  007E  2880               	goto	u3770
  2268  007F                     u3771:
  2269  007F  2899               	goto	l4672
  2270  0080                     u3770:
  2271                           	line	227
  2272                           	
  2273  0080                     l4666:	
  2274                           ;Main Card V10.0.c: 226: {
  2275                           ;Main Card V10.0.c: 227: PORTCbits.RC2 = 1;
  2276  0080  1283               	bcf	status, 5	;RP0=0, select bank0
  2277  0081  1303               	bcf	status, 6	;RP1=0, select bank0
  2278  0082  1507               	bsf	(7),2	;volatile
  2279                           	line	228
  2280                           	
  2281  0083                     l4668:	
  2282                           ;Main Card V10.0.c: 228: DelayDs(10);
  2283  0083  300A               	movlw	low(0Ah)
  2284  0084  00A0               	movwf	(?_DelayDs)
  2285  0085  3000               	movlw	high(0Ah)
  2286  0086  00A1               	movwf	((?_DelayDs))+1
  2287  0087  120A  158A  24DE   	fcall	_DelayDs
              120A  118A         
  2288                           	line	229
  2289                           	
  2290  008C                     l4670:	
  2291                           ;Main Card V10.0.c: 229: PORTCbits.RC2 = 0;
  2292  008C  1283               	bcf	status, 5	;RP0=0, select bank0
  2293  008D  1303               	bcf	status, 6	;RP1=0, select bank0
  2294  008E  1107               	bcf	(7),2	;volatile
  2295                           	line	230
  2296                           ;Main Card V10.0.c: 230: DelayDs(5);
  2297  008F  3005               	movlw	low(05h)
  2298  0090  00A0               	movwf	(?_DelayDs)
  2299  0091  3000               	movlw	high(05h)
  2300  0092  00A1               	movwf	((?_DelayDs))+1
  2301  0093  120A  158A  24DE   	fcall	_DelayDs
              120A  118A         
  2302                           	line	231
  2303                           ;Main Card V10.0.c: 231: }
  2304  0098  29F5               	goto	l1120
  2305                           	line	232
  2306                           	
  2307  0099                     l1093:	
  2308                           	
  2309  0099                     l4672:	
  2310                           ;Main Card V10.0.c: 232: else if((strstr(TransmittedString,"FLASHB")))
  2311  0099  3074               	movlw	((STR_4-__stringbase))&0ffh
  2312  009A  1283               	bcf	status, 5	;RP0=0, select bank0
  2313  009B  1303               	bcf	status, 6	;RP1=0, select bank0
  2314  009C  00BB               	movwf	(??_TransmittedDataHandler+0)+0
  2315  009D  083B               	movf	(??_TransmittedDataHandler+0)+0,w
  2316  009E  00B0               	movwf	(?_strstr)
  2317  009F  30AF               	movlw	(_TransmittedString)&0ffh
  2318  00A0  120A  158A  25D1   	fcall	_strstr
              120A  118A         
  2319  00A5  3A00               	xorlw	0
  2320  00A6  1903               	skipnz
  2321  00A7  28A9               	goto	u3781
  2322  00A8  28AA               	goto	u3780
  2323  00A9                     u3781:
  2324  00A9  28C3               	goto	l4680
  2325  00AA                     u3780:
  2326                           	line	234
  2327                           	
  2328  00AA                     l4674:	
  2329                           ;Main Card V10.0.c: 233: {
  2330                           ;Main Card V10.0.c: 234: PORTCbits.RC1 = 1;
  2331  00AA  1283               	bcf	status, 5	;RP0=0, select bank0
  2332  00AB  1303               	bcf	status, 6	;RP1=0, select bank0
  2333  00AC  1487               	bsf	(7),1	;volatile
  2334                           	line	235
  2335                           	
  2336  00AD                     l4676:	
  2337                           ;Main Card V10.0.c: 235: DelayDs(10);
  2338  00AD  300A               	movlw	low(0Ah)
  2339  00AE  00A0               	movwf	(?_DelayDs)
  2340  00AF  3000               	movlw	high(0Ah)
  2341  00B0  00A1               	movwf	((?_DelayDs))+1
  2342  00B1  120A  158A  24DE   	fcall	_DelayDs
              120A  118A         
  2343                           	line	236
  2344                           	
  2345  00B6                     l4678:	
  2346                           ;Main Card V10.0.c: 236: PORTCbits.RC1 = 0;
  2347  00B6  1283               	bcf	status, 5	;RP0=0, select bank0
  2348  00B7  1303               	bcf	status, 6	;RP1=0, select bank0
  2349  00B8  1087               	bcf	(7),1	;volatile
  2350                           	line	237
  2351                           ;Main Card V10.0.c: 237: DelayDs(5);
  2352  00B9  3005               	movlw	low(05h)
  2353  00BA  00A0               	movwf	(?_DelayDs)
  2354  00BB  3000               	movlw	high(05h)
  2355  00BC  00A1               	movwf	((?_DelayDs))+1
  2356  00BD  120A  158A  24DE   	fcall	_DelayDs
              120A  118A         
  2357                           	line	238
  2358                           ;Main Card V10.0.c: 238: }
  2359  00C2  29F5               	goto	l1120
  2360                           	line	239
  2361                           	
  2362  00C3                     l1095:	
  2363                           	
  2364  00C3                     l4680:	
  2365                           ;Main Card V10.0.c: 239: else if((strstr(TransmittedString,"SENSVAL")))
  2366  00C3  3065               	movlw	((STR_5-__stringbase))&0ffh
  2367  00C4  1283               	bcf	status, 5	;RP0=0, select bank0
  2368  00C5  1303               	bcf	status, 6	;RP1=0, select bank0
  2369  00C6  00BB               	movwf	(??_TransmittedDataHandler+0)+0
  2370  00C7  083B               	movf	(??_TransmittedDataHandler+0)+0,w
  2371  00C8  00B0               	movwf	(?_strstr)
  2372  00C9  30AF               	movlw	(_TransmittedString)&0ffh
  2373  00CA  120A  158A  25D1   	fcall	_strstr
              120A  118A         
  2374  00CF  3A00               	xorlw	0
  2375  00D0  1903               	skipnz
  2376  00D1  28D3               	goto	u3791
  2377  00D2  28D4               	goto	u3790
  2378  00D3                     u3791:
  2379  00D3  28E9               	goto	l4686
  2380  00D4                     u3790:
  2381                           	line	242
  2382                           	
  2383  00D4                     l4682:	
  2384                           ;Main Card V10.0.c: 240: {
  2385                           ;Main Card V10.0.c: 241: unsigned char slask[8];
  2386                           ;Main Card V10.0.c: 242: slask[0] = AnalogValue(0);
  2387  00D4  3000               	movlw	(0)
  2388  00D5  120A  158A  2506   	fcall	_AnalogValue
              120A  118A         
  2389  00DA  1283               	bcf	status, 5	;RP0=0, select bank0
  2390  00DB  1303               	bcf	status, 6	;RP1=0, select bank0
  2391  00DC  00BB               	movwf	(??_TransmittedDataHandler+0)+0
  2392  00DD  083B               	movf	(??_TransmittedDataHandler+0)+0,w
  2393  00DE  00BC               	movwf	(TransmittedDataHandler@slask)
  2394                           	line	243
  2395                           	
  2396  00DF                     l4684:	
  2397                           ;Main Card V10.0.c: 243: TransmittString(slask);
  2398  00DF  303C               	movlw	(TransmittedDataHandler@slask&0ffh)
  2399  00E0  00B5               	movwf	(?_TransmittString)
  2400  00E1  3000               	movlw	(0x0/2)
  2401  00E2  00B6               	movwf	(?_TransmittString+1)
  2402  00E3  120A  118A  24DA   	fcall	_TransmittString
              120A  118A         
  2403                           	line	244
  2404                           ;Main Card V10.0.c: 244: }
  2405  00E8  29F5               	goto	l1120
  2406                           	line	245
  2407                           	
  2408  00E9                     l1097:	
  2409                           	
  2410  00E9                     l4686:	
  2411                           ;Main Card V10.0.c: 245: else if((strstr(TransmittedString,"POTVAL")))
  2412  00E9  307B               	movlw	((STR_6-__stringbase))&0ffh
  2413  00EA  1283               	bcf	status, 5	;RP0=0, select bank0
  2414  00EB  1303               	bcf	status, 6	;RP1=0, select bank0
  2415  00EC  00BB               	movwf	(??_TransmittedDataHandler+0)+0
  2416  00ED  083B               	movf	(??_TransmittedDataHandler+0)+0,w
  2417  00EE  00B0               	movwf	(?_strstr)
  2418  00EF  30AF               	movlw	(_TransmittedString)&0ffh
  2419  00F0  120A  158A  25D1   	fcall	_strstr
              120A  118A         
  2420  00F5  3A00               	xorlw	0
  2421  00F6  1903               	skipnz
  2422  00F7  28F9               	goto	u3801
  2423  00F8  28FA               	goto	u3800
  2424  00F9                     u3801:
  2425  00F9  290F               	goto	l4692
  2426  00FA                     u3800:
  2427                           	line	248
  2428                           	
  2429  00FA                     l4688:	
  2430                           ;Main Card V10.0.c: 246: {
  2431                           ;Main Card V10.0.c: 247: unsigned char slask[8];
  2432                           ;Main Card V10.0.c: 248: slask[0] = AnalogValue(3);
  2433  00FA  3003               	movlw	(03h)
  2434  00FB  120A  158A  2506   	fcall	_AnalogValue
              120A  118A         
  2435  0100  1283               	bcf	status, 5	;RP0=0, select bank0
  2436  0101  1303               	bcf	status, 6	;RP1=0, select bank0
  2437  0102  00BB               	movwf	(??_TransmittedDataHandler+0)+0
  2438  0103  083B               	movf	(??_TransmittedDataHandler+0)+0,w
  2439  0104  00C4               	movwf	(TransmittedDataHandler@slask_1866)
  2440                           	line	249
  2441                           	
  2442  0105                     l4690:	
  2443                           ;Main Card V10.0.c: 249: TransmittString(slask);
  2444  0105  3044               	movlw	(TransmittedDataHandler@slask_1866&0ffh)
  2445  0106  00B5               	movwf	(?_TransmittString)
  2446  0107  3000               	movlw	(0x0/2)
  2447  0108  00B6               	movwf	(?_TransmittString+1)
  2448  0109  120A  118A  24DA   	fcall	_TransmittString
              120A  118A         
  2449                           	line	250
  2450                           ;Main Card V10.0.c: 250: }
  2451  010E  29F5               	goto	l1120
  2452                           	line	251
  2453                           	
  2454  010F                     l1099:	
  2455                           	
  2456  010F                     l4692:	
  2457                           ;Main Card V10.0.c: 251: else if((strstr(TransmittedString,"DARKCALC")))
  2458  010F  3044               	movlw	((STR_7-__stringbase))&0ffh
  2459  0110  1283               	bcf	status, 5	;RP0=0, select bank0
  2460  0111  1303               	bcf	status, 6	;RP1=0, select bank0
  2461  0112  00BB               	movwf	(??_TransmittedDataHandler+0)+0
  2462  0113  083B               	movf	(??_TransmittedDataHandler+0)+0,w
  2463  0114  00B0               	movwf	(?_strstr)
  2464  0115  30AF               	movlw	(_TransmittedString)&0ffh
  2465  0116  120A  158A  25D1   	fcall	_strstr
              120A  118A         
  2466  011B  3A00               	xorlw	0
  2467  011C  1903               	skipnz
  2468  011D  291F               	goto	u3811
  2469  011E  2920               	goto	u3810
  2470  011F                     u3811:
  2471  011F  2942               	goto	l4702
  2472  0120                     u3810:
  2473                           	line	253
  2474                           	
  2475  0120                     l4694:	
  2476                           ;Main Card V10.0.c: 252: {
  2477                           ;Main Card V10.0.c: 253: DarknessCheck();
  2478  0120  120A  158A  2533   	fcall	_DarknessCheck
              120A  118A         
  2479                           	line	254
  2480                           	
  2481  0125                     l4696:	
  2482                           ;Main Card V10.0.c: 254: if(bDark)
  2483  0125  1283               	bcf	status, 5	;RP0=0, select bank0
  2484  0126  1303               	bcf	status, 6	;RP1=0, select bank0
  2485  0127  086A               	movf	(_bDark),w
  2486  0128  1D03               	skipz
  2487  0129  292B               	goto	u3820
  2488  012A  2935               	goto	l4700
  2489  012B                     u3820:
  2490                           	line	255
  2491                           	
  2492  012B                     l4698:	
  2493                           ;Main Card V10.0.c: 255: TransmittString("It's Dark    ");
  2494  012B  3036               	movlw	low((STR_8-__stringbase))
  2495  012C  00B5               	movwf	(?_TransmittString)
  2496  012D  3080               	movlw	80h
  2497  012E  00B6               	movwf	(?_TransmittString+1)
  2498  012F  120A  118A  24DA   	fcall	_TransmittString
              120A  118A         
  2499  0134  29F5               	goto	l1120
  2500                           	line	256
  2501                           	
  2502  0135                     l1102:	
  2503                           	line	257
  2504                           	
  2505  0135                     l4700:	
  2506                           ;Main Card V10.0.c: 256: else
  2507                           ;Main Card V10.0.c: 257: TransmittString("Not Dark     ");
  2508  0135  3028               	movlw	low((STR_9-__stringbase))
  2509  0136  1283               	bcf	status, 5	;RP0=0, select bank0
  2510  0137  1303               	bcf	status, 6	;RP1=0, select bank0
  2511  0138  00B5               	movwf	(?_TransmittString)
  2512  0139  3080               	movlw	80h
  2513  013A  00B6               	movwf	(?_TransmittString+1)
  2514  013B  120A  118A  24DA   	fcall	_TransmittString
              120A  118A         
  2515  0140  29F5               	goto	l1120
  2516                           	
  2517  0141                     l1103:	
  2518                           	line	258
  2519                           ;Main Card V10.0.c: 258: }
  2520  0141  29F5               	goto	l1120
  2521                           	line	259
  2522                           	
  2523  0142                     l1101:	
  2524                           	
  2525  0142                     l4702:	
  2526                           ;Main Card V10.0.c: 259: else if((strstr(TransmittedString,"STATE?")))
  2527  0142  306D               	movlw	((STR_10-__stringbase))&0ffh
  2528  0143  1283               	bcf	status, 5	;RP0=0, select bank0
  2529  0144  1303               	bcf	status, 6	;RP1=0, select bank0
  2530  0145  00BB               	movwf	(??_TransmittedDataHandler+0)+0
  2531  0146  083B               	movf	(??_TransmittedDataHandler+0)+0,w
  2532  0147  00B0               	movwf	(?_strstr)
  2533  0148  30AF               	movlw	(_TransmittedString)&0ffh
  2534  0149  120A  158A  25D1   	fcall	_strstr
              120A  118A         
  2535  014E  3A00               	xorlw	0
  2536  014F  1903               	skipnz
  2537  0150  2952               	goto	u3831
  2538  0151  2953               	goto	u3830
  2539  0152                     u3831:
  2540  0152  2972               	goto	l4710
  2541  0153                     u3830:
  2542                           	line	261
  2543                           	
  2544  0153                     l4704:	
  2545                           ;Main Card V10.0.c: 260: {
  2546                           ;Main Card V10.0.c: 261: if(bValueFromPot == TRUE)
  2547  0153  1283               	bcf	status, 5	;RP0=0, select bank0
  2548  0154  1303               	bcf	status, 6	;RP1=0, select bank0
  2549  0155  086E               	movf	(_bValueFromPot),w
  2550  0156  3A01               	xorlw	01h
  2551  0157  1D03               	skipz
  2552  0158  295A               	goto	u3841
  2553  0159  295B               	goto	u3840
  2554  015A                     u3841:
  2555  015A  2965               	goto	l4708
  2556  015B                     u3840:
  2557                           	line	262
  2558                           	
  2559  015B                     l4706:	
  2560                           ;Main Card V10.0.c: 262: TransmittString("Pot");
  2561  015B  309E               	movlw	low((STR_11-__stringbase))
  2562  015C  00B5               	movwf	(?_TransmittString)
  2563  015D  3080               	movlw	80h
  2564  015E  00B6               	movwf	(?_TransmittString+1)
  2565  015F  120A  118A  24DA   	fcall	_TransmittString
              120A  118A         
  2566  0164  29F5               	goto	l1120
  2567                           	line	263
  2568                           	
  2569  0165                     l1106:	
  2570                           	line	264
  2571                           	
  2572  0165                     l4708:	
  2573                           ;Main Card V10.0.c: 263: else
  2574                           ;Main Card V10.0.c: 264: TransmittString("PIC");
  2575  0165  309A               	movlw	low((STR_12-__stringbase))
  2576  0166  1283               	bcf	status, 5	;RP0=0, select bank0
  2577  0167  1303               	bcf	status, 6	;RP1=0, select bank0
  2578  0168  00B5               	movwf	(?_TransmittString)
  2579  0169  3080               	movlw	80h
  2580  016A  00B6               	movwf	(?_TransmittString+1)
  2581  016B  120A  118A  24DA   	fcall	_TransmittString
              120A  118A         
  2582  0170  29F5               	goto	l1120
  2583                           	
  2584  0171                     l1107:	
  2585                           	line	266
  2586                           ;Main Card V10.0.c: 266: }
  2587  0171  29F5               	goto	l1120
  2588                           	line	267
  2589                           	
  2590  0172                     l1105:	
  2591                           	
  2592  0172                     l4710:	
  2593                           ;Main Card V10.0.c: 267: else if((strstr(TransmittedString,"CHSTATE")))
  2594  0172  304D               	movlw	((STR_13-__stringbase))&0ffh
  2595  0173  1283               	bcf	status, 5	;RP0=0, select bank0
  2596  0174  1303               	bcf	status, 6	;RP1=0, select bank0
  2597  0175  00BB               	movwf	(??_TransmittedDataHandler+0)+0
  2598  0176  083B               	movf	(??_TransmittedDataHandler+0)+0,w
  2599  0177  00B0               	movwf	(?_strstr)
  2600  0178  30AF               	movlw	(_TransmittedString)&0ffh
  2601  0179  120A  158A  25D1   	fcall	_strstr
              120A  118A         
  2602  017E  3A00               	xorlw	0
  2603  017F  1903               	skipnz
  2604  0180  2982               	goto	u3851
  2605  0181  2983               	goto	u3850
  2606  0182                     u3851:
  2607  0182  2992               	goto	l4718
  2608  0183                     u3850:
  2609                           	line	269
  2610                           	
  2611  0183                     l4712:	
  2612                           ;Main Card V10.0.c: 268: {
  2613                           ;Main Card V10.0.c: 269: if(bValueFromPot== TRUE)
  2614  0183  1283               	bcf	status, 5	;RP0=0, select bank0
  2615  0184  1303               	bcf	status, 6	;RP1=0, select bank0
  2616  0185  086E               	movf	(_bValueFromPot),w
  2617  0186  3A01               	xorlw	01h
  2618  0187  1D03               	skipz
  2619  0188  298A               	goto	u3861
  2620  0189  298B               	goto	u3860
  2621  018A                     u3861:
  2622  018A  298D               	goto	l4716
  2623  018B                     u3860:
  2624                           	line	270
  2625                           	
  2626  018B                     l4714:	
  2627                           ;Main Card V10.0.c: 270: bValueFromPot= FALSE;
  2628  018B  01EE               	clrf	(_bValueFromPot)
  2629  018C  29F5               	goto	l1120
  2630                           	line	271
  2631                           	
  2632  018D                     l1110:	
  2633                           	line	272
  2634                           	
  2635  018D                     l4716:	
  2636                           ;Main Card V10.0.c: 271: else
  2637                           ;Main Card V10.0.c: 272: bValueFromPot=TRUE;
  2638  018D  01EE               	clrf	(_bValueFromPot)
  2639  018E  1403               	bsf	status,0
  2640  018F  0DEE               	rlf	(_bValueFromPot),f
  2641  0190  29F5               	goto	l1120
  2642                           	
  2643  0191                     l1111:	
  2644                           	line	273
  2645                           ;Main Card V10.0.c: 273: }
  2646  0191  29F5               	goto	l1120
  2647                           	line	275
  2648                           	
  2649  0192                     l1109:	
  2650                           	
  2651  0192                     l4718:	
  2652                           ;Main Card V10.0.c: 275: else if((strstr(TransmittedString,"INCDV")))
  2653  0192  308F               	movlw	((STR_14-__stringbase))&0ffh
  2654  0193  1283               	bcf	status, 5	;RP0=0, select bank0
  2655  0194  1303               	bcf	status, 6	;RP1=0, select bank0
  2656  0195  00BB               	movwf	(??_TransmittedDataHandler+0)+0
  2657  0196  083B               	movf	(??_TransmittedDataHandler+0)+0,w
  2658  0197  00B0               	movwf	(?_strstr)
  2659  0198  30AF               	movlw	(_TransmittedString)&0ffh
  2660  0199  120A  158A  25D1   	fcall	_strstr
              120A  118A         
  2661  019E  3A00               	xorlw	0
  2662  019F  1903               	skipnz
  2663  01A0  29A2               	goto	u3871
  2664  01A1  29A3               	goto	u3870
  2665  01A2                     u3871:
  2666  01A2  29B0               	goto	l4724
  2667  01A3                     u3870:
  2668                           	line	277
  2669                           	
  2670  01A3                     l4720:	
  2671                           ;Main Card V10.0.c: 276: {
  2672                           ;Main Card V10.0.c: 277: if((chManualDarknessValue++) >255)
  2673  01A3  3001               	movlw	(01h)
  2674  01A4  1283               	bcf	status, 5	;RP0=0, select bank0
  2675  01A5  1303               	bcf	status, 6	;RP1=0, select bank0
  2676  01A6  00BB               	movwf	(??_TransmittedDataHandler+0)+0
  2677  01A7  083B               	movf	(??_TransmittedDataHandler+0)+0,w
  2678  01A8  07EF               	addwf	(_chManualDarknessValue),f
  2679  01A9  29F5               	goto	l1120
  2680                           	line	278
  2681                           	
  2682  01AA                     l4722:	
  2683                           ;Main Card V10.0.c: 278: chManualDarknessValue=255;
  2684  01AA  30FF               	movlw	(0FFh)
  2685  01AB  00BB               	movwf	(??_TransmittedDataHandler+0)+0
  2686  01AC  083B               	movf	(??_TransmittedDataHandler+0)+0,w
  2687  01AD  00EF               	movwf	(_chManualDarknessValue)
  2688  01AE  29F5               	goto	l1120
  2689                           	
  2690  01AF                     l1114:	
  2691                           	line	280
  2692                           ;Main Card V10.0.c: 280: }
  2693  01AF  29F5               	goto	l1120
  2694                           	line	282
  2695                           	
  2696  01B0                     l1113:	
  2697                           	
  2698  01B0                     l4724:	
  2699                           ;Main Card V10.0.c: 282: else if((strstr(TransmittedString,"DECDV")))
  2700  01B0  3089               	movlw	((STR_15-__stringbase))&0ffh
  2701  01B1  1283               	bcf	status, 5	;RP0=0, select bank0
  2702  01B2  1303               	bcf	status, 6	;RP1=0, select bank0
  2703  01B3  00BB               	movwf	(??_TransmittedDataHandler+0)+0
  2704  01B4  083B               	movf	(??_TransmittedDataHandler+0)+0,w
  2705  01B5  00B0               	movwf	(?_strstr)
  2706  01B6  30AF               	movlw	(_TransmittedString)&0ffh
  2707  01B7  120A  158A  25D1   	fcall	_strstr
              120A  118A         
  2708  01BC  3A00               	xorlw	0
  2709  01BD  1903               	skipnz
  2710  01BE  29C0               	goto	u3881
  2711  01BF  29C1               	goto	u3880
  2712  01C0                     u3881:
  2713  01C0  29C9               	goto	l4730
  2714  01C1                     u3880:
  2715                           	line	284
  2716                           	
  2717  01C1                     l4726:	
  2718                           ;Main Card V10.0.c: 283: {
  2719                           ;Main Card V10.0.c: 284: if((chManualDarknessValue--)<0 )
  2720  01C1  3001               	movlw	low(01h)
  2721  01C2  1283               	bcf	status, 5	;RP0=0, select bank0
  2722  01C3  1303               	bcf	status, 6	;RP1=0, select bank0
  2723  01C4  02EF               	subwf	(_chManualDarknessValue),f
  2724  01C5  29F5               	goto	l1120
  2725                           	line	285
  2726                           	
  2727  01C6                     l4728:	
  2728                           ;Main Card V10.0.c: 285: chManualDarknessValue=0;
  2729  01C6  01EF               	clrf	(_chManualDarknessValue)
  2730  01C7  29F5               	goto	l1120
  2731                           	
  2732  01C8                     l1117:	
  2733                           	line	287
  2734                           ;Main Card V10.0.c: 287: }
  2735  01C8  29F5               	goto	l1120
  2736                           	line	289
  2737                           	
  2738  01C9                     l1116:	
  2739                           	
  2740  01C9                     l4730:	
  2741                           ;Main Card V10.0.c: 289: else if((strstr(TransmittedString,"RMDV")))
  2742  01C9  3095               	movlw	((STR_16-__stringbase))&0ffh
  2743  01CA  1283               	bcf	status, 5	;RP0=0, select bank0
  2744  01CB  1303               	bcf	status, 6	;RP1=0, select bank0
  2745  01CC  00BB               	movwf	(??_TransmittedDataHandler+0)+0
  2746  01CD  083B               	movf	(??_TransmittedDataHandler+0)+0,w
  2747  01CE  00B0               	movwf	(?_strstr)
  2748  01CF  30AF               	movlw	(_TransmittedString)&0ffh
  2749  01D0  120A  158A  25D1   	fcall	_strstr
              120A  118A         
  2750  01D5  3A00               	xorlw	0
  2751  01D6  1903               	skipnz
  2752  01D7  29D9               	goto	u3891
  2753  01D8  29DA               	goto	u3890
  2754  01D9                     u3891:
  2755  01D9  29F5               	goto	l1120
  2756  01DA                     u3890:
  2757                           	line	292
  2758                           	
  2759  01DA                     l4732:	
  2760                           ;Main Card V10.0.c: 290: {
  2761                           ;Main Card V10.0.c: 291: unsigned char slask[8];
  2762                           ;Main Card V10.0.c: 292: slask[0] = chManualDarknessValue;
  2763  01DA  1283               	bcf	status, 5	;RP0=0, select bank0
  2764  01DB  1303               	bcf	status, 6	;RP1=0, select bank0
  2765  01DC  086F               	movf	(_chManualDarknessValue),w
  2766  01DD  00BB               	movwf	(??_TransmittedDataHandler+0)+0
  2767  01DE  083B               	movf	(??_TransmittedDataHandler+0)+0,w
  2768  01DF  00CC               	movwf	(TransmittedDataHandler@slask_1877)
  2769                           	line	293
  2770                           	
  2771  01E0                     l4734:	
  2772                           ;Main Card V10.0.c: 293: TransmittString(slask);
  2773  01E0  304C               	movlw	(TransmittedDataHandler@slask_1877&0ffh)
  2774  01E1  00B5               	movwf	(?_TransmittString)
  2775  01E2  3000               	movlw	(0x0/2)
  2776  01E3  00B6               	movwf	(?_TransmittString+1)
  2777  01E4  120A  118A  24DA   	fcall	_TransmittString
              120A  118A         
  2778  01E9  29F5               	goto	l1120
  2779                           	line	295
  2780                           	
  2781  01EA                     l1119:	
  2782  01EA  29F5               	goto	l1120
  2783                           	line	296
  2784                           	
  2785  01EB                     l1118:	
  2786  01EB  29F5               	goto	l1120
  2787                           	
  2788  01EC                     l1115:	
  2789  01EC  29F5               	goto	l1120
  2790                           	
  2791  01ED                     l1112:	
  2792  01ED  29F5               	goto	l1120
  2793                           	
  2794  01EE                     l1108:	
  2795  01EE  29F5               	goto	l1120
  2796                           	
  2797  01EF                     l1104:	
  2798  01EF  29F5               	goto	l1120
  2799                           	
  2800  01F0                     l1100:	
  2801  01F0  29F5               	goto	l1120
  2802                           	
  2803  01F1                     l1098:	
  2804  01F1  29F5               	goto	l1120
  2805                           	
  2806  01F2                     l1096:	
  2807  01F2  29F5               	goto	l1120
  2808                           	
  2809  01F3                     l1094:	
  2810  01F3  29F5               	goto	l1120
  2811                           	
  2812  01F4                     l1092:	
  2813  01F4  29F5               	goto	l1120
  2814                           	
  2815  01F5                     l1090:	
  2816                           	
  2817  01F5                     l1120:	
  2818  01F5  0008               	return
  2819                           	opt stack 0
  2820                           GLOBAL	__end_of_TransmittedDataHandler
  2821  01F6                     	__end_of_TransmittedDataHandler:
  2822 ;; =============== function _TransmittedDataHandler ends ============
  2823                           
  2824                           	signat	_TransmittedDataHandler,88
  2825                           	global	_Mode_5
  2826                           psect	text814,local,class=CODE,delta=2
  2827                           global __ptext814
  2828  0C4A                     __ptext814:
  2829                           
  2830 ;; *************** function _Mode_5 *****************
  2831 ;; Defined at:
  2832 ;;		line 404 in file "C:\Users\Seba\Documents\Projekt\Bustel\Bustel_Project\Bustel Card v10.0 code v1.7.1\Main Card V10.
       0.c"
  2833 ;; Parameters:    Size  Location     Type
  2834 ;;		None
  2835 ;; Auto vars:     Size  Location     Type
  2836 ;;		None
  2837 ;; Return value:  Size  Location     Type
  2838 ;;		None               void
  2839 ;; Registers used:
  2840 ;;		wreg, fsr0l, fsr0h, status,2, status,0, btemp+1, pclath, cstack
  2841 ;; Tracked objects:
  2842 ;;		On entry : 0/0
  2843 ;;		On exit  : 0/0
  2844 ;;		Unchanged: 0/0
  2845 ;; Data sizes:     COMMON   BANK0   BANK1   BANK3   BANK2
  2846 ;;      Params:         0       0       0       0       0
  2847 ;;      Locals:         0       0       0       0       0
  2848 ;;      Temps:          0       0       0       0       0
  2849 ;;      Totals:         0       0       0       0       0
  2850 ;;Total ram usage:        0 bytes
  2851 ;; Hardware stack levels used:    1
  2852 ;; Hardware stack levels required when called:    8
  2853 ;; This function calls:
  2854 ;;		_TransmittString
  2855 ;;		_LightWithSensController
  2856 ;; This function is called by:
  2857 ;;		_main
  2858 ;; This function uses a non-reentrant model
  2859 ;;
  2860                           psect	text814
  2861                           	file	"C:\Users\Seba\Documents\Projekt\Bustel\Bustel_Project\Bustel Card v10.0 code v1.7
                                 .1\Main Card V10.0.c"
  2862                           	line	404
  2863                           	global	__size_of_Mode_5
  2864  0016                     	__size_of_Mode_5	equ	__end_of_Mode_5-_Mode_5
  2865                           	
  2866  0C4A                     _Mode_5:	
  2867 ;; hardware stack exceeded
  2868                           	opt	stack 0
  2869                           ; Regs used in _Mode_5: [wreg-fsr0h+status,2+status,0+btemp+1+pclath+cstack]
  2870                           	line	405
  2871                           	
  2872  0C4A                     l4638:	
  2873                           ;Main Card V10.0.c: 405: if(!PORTBbits.RB5)
  2874  0C4A  1283               	bcf	status, 5	;RP0=0, select bank0
  2875  0C4B  1303               	bcf	status, 6	;RP1=0, select bank0
  2876  0C4C  1A86               	btfsc	(6),5	;volatile
  2877  0C4D  2C4F               	goto	u3721
  2878  0C4E  2C50               	goto	u3720
  2879  0C4F                     u3721:
  2880  0C4F  2C5A               	goto	l4642
  2881  0C50                     u3720:
  2882                           	line	407
  2883                           	
  2884  0C50                     l4640:	
  2885                           ;Main Card V10.0.c: 406: {
  2886                           ;Main Card V10.0.c: 407: TransmittString("N2BLINK");
  2887  0C50  305D               	movlw	low((STR_18-__stringbase))
  2888  0C51  00B5               	movwf	(?_TransmittString)
  2889  0C52  3080               	movlw	80h
  2890  0C53  00B6               	movwf	(?_TransmittString+1)
  2891  0C54  120A  118A  24DA   	fcall	_TransmittString
              120A  158A         
  2892  0C59  2C5A               	goto	l4642
  2893                           	line	408
  2894                           	
  2895  0C5A                     l1158:	
  2896                           	line	409
  2897                           	
  2898  0C5A                     l4642:	
  2899                           ;Main Card V10.0.c: 408: }
  2900                           ;Main Card V10.0.c: 409: LightWithSensController();
  2901  0C5A  120A  158A  26D0   	fcall	_LightWithSensController
              120A  158A         
  2902                           	line	410
  2903                           	
  2904  0C5F                     l1159:	
  2905  0C5F  0008               	return
  2906                           	opt stack 0
  2907                           GLOBAL	__end_of_Mode_5
  2908  0C60                     	__end_of_Mode_5:
  2909 ;; =============== function _Mode_5 ends ============
  2910                           
  2911                           	signat	_Mode_5,88
  2912                           	global	_Mode_4
  2913                           psect	text815,local,class=CODE,delta=2
  2914                           global __ptext815
  2915  0C34                     __ptext815:
  2916                           
  2917 ;; *************** function _Mode_4 *****************
  2918 ;; Defined at:
  2919 ;;		line 392 in file "C:\Users\Seba\Documents\Projekt\Bustel\Bustel_Project\Bustel Card v10.0 code v1.7.1\Main Card V10.
       0.c"
  2920 ;; Parameters:    Size  Location     Type
  2921 ;;		None
  2922 ;; Auto vars:     Size  Location     Type
  2923 ;;		None
  2924 ;; Return value:  Size  Location     Type
  2925 ;;		None               void
  2926 ;; Registers used:
  2927 ;;		wreg, fsr0l, fsr0h, status,2, status,0, btemp+1, pclath, cstack
  2928 ;; Tracked objects:
  2929 ;;		On entry : 0/0
  2930 ;;		On exit  : 0/0
  2931 ;;		Unchanged: 0/0
  2932 ;; Data sizes:     COMMON   BANK0   BANK1   BANK3   BANK2
  2933 ;;      Params:         0       0       0       0       0
  2934 ;;      Locals:         0       0       0       0       0
  2935 ;;      Temps:          0       0       0       0       0
  2936 ;;      Totals:         0       0       0       0       0
  2937 ;;Total ram usage:        0 bytes
  2938 ;; Hardware stack levels used:    1
  2939 ;; Hardware stack levels required when called:    8
  2940 ;; This function calls:
  2941 ;;		_TransmittString
  2942 ;;		_LightWithSensController
  2943 ;; This function is called by:
  2944 ;;		_main
  2945 ;; This function uses a non-reentrant model
  2946 ;;
  2947                           psect	text815
  2948                           	file	"C:\Users\Seba\Documents\Projekt\Bustel\Bustel_Project\Bustel Card v10.0 code v1.7
                                 .1\Main Card V10.0.c"
  2949                           	line	392
  2950                           	global	__size_of_Mode_4
  2951  0016                     	__size_of_Mode_4	equ	__end_of_Mode_4-_Mode_4
  2952                           	
  2953  0C34                     _Mode_4:	
  2954 ;; hardware stack exceeded
  2955                           	opt	stack 0
  2956                           ; Regs used in _Mode_4: [wreg-fsr0h+status,2+status,0+btemp+1+pclath+cstack]
  2957                           	line	393
  2958                           	
  2959  0C34                     l4632:	
  2960                           ;Main Card V10.0.c: 393: if(!PORTBbits.RB5)
  2961  0C34  1283               	bcf	status, 5	;RP0=0, select bank0
  2962  0C35  1303               	bcf	status, 6	;RP1=0, select bank0
  2963  0C36  1A86               	btfsc	(6),5	;volatile
  2964  0C37  2C39               	goto	u3711
  2965  0C38  2C3A               	goto	u3710
  2966  0C39                     u3711:
  2967  0C39  2C44               	goto	l4636
  2968  0C3A                     u3710:
  2969                           	line	395
  2970                           	
  2971  0C3A                     l4634:	
  2972                           ;Main Card V10.0.c: 394: {
  2973                           ;Main Card V10.0.c: 395: TransmittString("N1BLINK");
  2974  0C3A  3055               	movlw	low((STR_17-__stringbase))
  2975  0C3B  00B5               	movwf	(?_TransmittString)
  2976  0C3C  3080               	movlw	80h
  2977  0C3D  00B6               	movwf	(?_TransmittString+1)
  2978  0C3E  120A  118A  24DA   	fcall	_TransmittString
              120A  158A         
  2979  0C43  2C44               	goto	l4636
  2980                           	line	396
  2981                           	
  2982  0C44                     l1154:	
  2983                           	line	397
  2984                           	
  2985  0C44                     l4636:	
  2986                           ;Main Card V10.0.c: 396: }
  2987                           ;Main Card V10.0.c: 397: LightWithSensController();
  2988  0C44  120A  158A  26D0   	fcall	_LightWithSensController
              120A  158A         
  2989                           	line	398
  2990                           	
  2991  0C49                     l1155:	
  2992  0C49  0008               	return
  2993                           	opt stack 0
  2994                           GLOBAL	__end_of_Mode_4
  2995  0C4A                     	__end_of_Mode_4:
  2996 ;; =============== function _Mode_4 ends ============
  2997                           
  2998                           	signat	_Mode_4,88
  2999                           	global	_TransmittString
  3000                           psect	text816,local,class=CODE,delta=2
  3001                           global __ptext816
  3002  04DA                     __ptext816:
  3003                           
  3004 ;; *************** function _TransmittString *****************
  3005 ;; Defined at:
  3006 ;;		line 298 in file "C:\Users\Seba\Documents\Projekt\Bustel\Bustel_Project\Bustel Card v10.0 code v1.7.1\Main Card V10.
       0.c"
  3007 ;; Parameters:    Size  Location     Type
  3008 ;;  dataString      2   21[BANK0 ] PTR unsigned char 
  3009 ;;		 -> STR_18(8), STR_17(8), TransmittedDataHandler@slask_1877(8), STR_12(4), 
  3010 ;;		 -> STR_11(4), STR_9(14), STR_8(14), TransmittedDataHandler@slask_1866(8), 
  3011 ;;		 -> TransmittedDataHandler@slask(8), 
  3012 ;; Auto vars:     Size  Location     Type
  3013 ;;  i               2   25[BANK0 ] int 
  3014 ;; Return value:  Size  Location     Type
  3015 ;;		None               void
  3016 ;; Registers used:
  3017 ;;		wreg, fsr0l, fsr0h, status,2, status,0, btemp+1, pclath, cstack
  3018 ;; Tracked objects:
  3019 ;;		On entry : 0/0
  3020 ;;		On exit  : 0/0
  3021 ;;		Unchanged: 0/0
  3022 ;; Data sizes:     COMMON   BANK0   BANK1   BANK3   BANK2
  3023 ;;      Params:         0       2       0       0       0
  3024 ;;      Locals:         0       2       0       0       0
  3025 ;;      Temps:          0       2       0       0       0
  3026 ;;      Totals:         0       6       0       0       0
  3027 ;;Total ram usage:        6 bytes
  3028 ;; Hardware stack levels used:    1
  3029 ;; Hardware stack levels required when called:    7
  3030 ;; This function calls:
  3031 ;;		_timerFunction
  3032 ;;		_SetRFMode
  3033 ;;		_RegisterRead
  3034 ;;		_RegisterSet
  3035 ;;		_FindChannel
  3036 ;;		_WriteFIFO
  3037 ;; This function is called by:
  3038 ;;		_TransmittedDataHandler
  3039 ;;		_Mode_4
  3040 ;;		_Mode_5
  3041 ;; This function uses a non-reentrant model
  3042 ;;
  3043                           psect	text816
  3044                           	file	"C:\Users\Seba\Documents\Projekt\Bustel\Bustel_Project\Bustel Card v10.0 code v1.7
                                 .1\Main Card V10.0.c"
  3045                           	line	298
  3046                           	global	__size_of_TransmittString
  3047  00D2                     	__size_of_TransmittString	equ	__end_of_TransmittString-_TransmittString
  3048                           	
  3049  04DA                     _TransmittString:	
  3050 ;; hardware stack exceeded
  3051                           	opt	stack 0
  3052                           ; Regs used in _TransmittString: [wreg-fsr0h+status,2+status,0+btemp+1+pclath+cstack]
  3053                           	line	299
  3054                           	
  3055  04DA                     l4586:	
  3056                           ;Main Card V10.0.c: 299: timerFunction(4, 5);
  3057  04DA  3004               	movlw	low(04h)
  3058  04DB  1283               	bcf	status, 5	;RP0=0, select bank0
  3059  04DC  1303               	bcf	status, 6	;RP1=0, select bank0
  3060  04DD  00A0               	movwf	(?_timerFunction)
  3061  04DE  3000               	movlw	high(04h)
  3062  04DF  00A1               	movwf	((?_timerFunction))+1
  3063  04E0  3005               	movlw	low(05h)
  3064  04E1  00A2               	movwf	0+(?_timerFunction)+02h
  3065  04E2  3000               	movlw	high(05h)
  3066  04E3  00A3               	movwf	(0+(?_timerFunction)+02h)+1
  3067  04E4  120A  158A  2421   	fcall	_timerFunction
              120A  118A         
  3068                           	line	301
  3069                           	
  3070  04E9                     l4588:	
  3071                           ;Main Card V10.0.c: 301: int i = 0;
  3072  04E9  1283               	bcf	status, 5	;RP0=0, select bank0
  3073  04EA  1303               	bcf	status, 6	;RP1=0, select bank0
  3074  04EB  01B9               	clrf	(TransmittString@i)
  3075  04EC  01BA               	clrf	(TransmittString@i+1)
  3076                           	line	304
  3077                           	
  3078  04ED                     l4590:	
  3079                           ;Main Card V10.0.c: 304: SetRFMode(0x20);
  3080  04ED  3020               	movlw	(020h)
  3081  04EE  120A  158A  2790   	fcall	_SetRFMode
              120A  118A         
  3082                           	line	305
  3083                           	
  3084  04F3                     l4592:	
  3085                           ;Main Card V10.0.c: 305: _delay((unsigned long)((10)*(4000000/4000.0)));
  3086                           	opt asmopt_off
  3087  04F3  300D               movlw	13
  3088  04F4  1283               	bcf	status, 5	;RP0=0, select bank0
  3089  04F5  1303               	bcf	status, 6	;RP1=0, select bank0
  3090  04F6  00B8               movwf	((??_TransmittString+0)+0+1),f
  3091  04F7  30FB               	movlw	251
  3092  04F8  00B7               movwf	((??_TransmittString+0)+0),f
  3093  04F9                     u4047:
  3094  04F9  0BB7               	decfsz	((??_TransmittString+0)+0),f
  3095  04FA  2CF9               	goto	u4047
  3096  04FB  0BB8               	decfsz	((??_TransmittString+0)+0+1),f
  3097  04FC  2CF9               	goto	u4047
  3098  04FD  2CFE               	nop2
  3099                           opt asmopt_on
  3100                           
  3101                           	line	306
  3102                           	
  3103  04FE                     l4594:	
  3104                           ;Main Card V10.0.c: 306: RegisterSet(0x0E,(RegisterRead(0x0E)|0x02));
  3105  04FE  300E               	movlw	(0Eh)
  3106  04FF  120A  158A  2498   	fcall	_RegisterRead
              120A  118A         
  3107  0504  3802               	iorlw	02h
  3108  0505  1283               	bcf	status, 5	;RP0=0, select bank0
  3109  0506  1303               	bcf	status, 6	;RP1=0, select bank0
  3110  0507  00B7               	movwf	(??_TransmittString+0)+0
  3111  0508  0837               	movf	(??_TransmittString+0)+0,w
  3112  0509  00A3               	movwf	(?_RegisterSet)
  3113  050A  300E               	movlw	(0Eh)
  3114  050B  120A  158A  247C   	fcall	_RegisterSet
              120A  118A         
  3115                           	line	307
  3116                           	
  3117  0510                     l4596:	
  3118                           ;Main Card V10.0.c: 307: SetRFMode(0x40);
  3119  0510  3040               	movlw	(040h)
  3120  0511  120A  158A  2790   	fcall	_SetRFMode
              120A  118A         
  3121                           	line	308
  3122                           ;Main Card V10.0.c: 308: while((RegisterRead(0x0E) & 0b00000010) == 0)
  3123  0516  2D24               	goto	l4602
  3124                           	
  3125  0517                     l1124:	
  3126                           	line	310
  3127                           	
  3128  0517                     l4598:	
  3129                           ;Main Card V10.0.c: 309: {
  3130                           ;Main Card V10.0.c: 310: if(bTimerComplete[4])
  3131  0517  1683               	bsf	status, 5	;RP0=1, select bank1
  3132  0518  1303               	bcf	status, 6	;RP1=0, select bank1
  3133  0519  082E               	movf	0+(_bTimerComplete)^080h+04h,w
  3134  051A  1D03               	skipz
  3135  051B  2D1D               	goto	u3660
  3136  051C  2D24               	goto	l4602
  3137  051D                     u3660:
  3138                           	line	312
  3139                           	
  3140  051D                     l4600:	
  3141                           ;Main Card V10.0.c: 311: {
  3142                           ;Main Card V10.0.c: 312: FindChannel();
  3143  051D  120A  118A  21F6   	fcall	_FindChannel
              120A  118A         
  3144                           	line	313
  3145                           ;Main Card V10.0.c: 313: break;
  3146  0522  2D32               	goto	l4604
  3147                           	line	314
  3148                           	
  3149  0523                     l1125:	
  3150  0523  2D24               	goto	l4602
  3151                           	line	316
  3152                           	
  3153  0524                     l1123:	
  3154                           	line	308
  3155                           	
  3156  0524                     l4602:	
  3157  0524  300E               	movlw	(0Eh)
  3158  0525  120A  158A  2498   	fcall	_RegisterRead
              120A  118A         
  3159  052A  1283               	bcf	status, 5	;RP0=0, select bank0
  3160  052B  1303               	bcf	status, 6	;RP1=0, select bank0
  3161  052C  00B7               	movwf	(??_TransmittString+0)+0
  3162  052D  1CB7               	btfss	0+(??_TransmittString+0)+0,(1)&7
  3163  052E  2D30               	goto	u3671
  3164  052F  2D31               	goto	u3670
  3165  0530                     u3671:
  3166  0530  2D17               	goto	l4598
  3167  0531                     u3670:
  3168  0531  2D32               	goto	l4604
  3169                           	
  3170  0532                     l1126:	
  3171                           	line	317
  3172                           	
  3173  0532                     l4604:	
  3174                           ;Main Card V10.0.c: 314: }
  3175                           ;Main Card V10.0.c: 316: }
  3176                           ;Main Card V10.0.c: 317: SetRFMode(0x80);
  3177  0532  3080               	movlw	(080h)
  3178  0533  120A  158A  2790   	fcall	_SetRFMode
              120A  118A         
  3179                           	line	318
  3180                           	
  3181  0538                     l4606:	
  3182                           ;Main Card V10.0.c: 318: _delay((unsigned long)((500)*(4000000/4000000.0)));
  3183                           	opt asmopt_off
  3184  0538  30A6               movlw	166
  3185  0539  1283               	bcf	status, 5	;RP0=0, select bank0
  3186  053A  1303               	bcf	status, 6	;RP1=0, select bank0
  3187  053B  00B7               movwf	(??_TransmittString+0)+0,f
  3188  053C                     u4057:
  3189  053C  0BB7               decfsz	(??_TransmittString+0)+0,f
  3190  053D  2D3C               	goto	u4057
  3191  053E  0064               	clrwdt
  3192                           opt asmopt_on
  3193                           
  3194                           	line	321
  3195                           	
  3196  053F                     l4608:	
  3197                           ;Main Card V10.0.c: 321: WriteFIFO('S');
  3198  053F  3053               	movlw	(053h)
  3199  0540  120A  158A  23E1   	fcall	_WriteFIFO
              120A  118A         
  3200                           	line	322
  3201                           	
  3202  0545                     l4610:	
  3203                           ;Main Card V10.0.c: 322: WriteFIFO('Y');
  3204  0545  3059               	movlw	(059h)
  3205  0546  120A  158A  23E1   	fcall	_WriteFIFO
              120A  118A         
  3206                           	line	323
  3207                           	
  3208  054B                     l4612:	
  3209                           ;Main Card V10.0.c: 323: WriteFIFO('N');
  3210  054B  304E               	movlw	(04Eh)
  3211  054C  120A  158A  23E1   	fcall	_WriteFIFO
              120A  118A         
  3212                           	line	324
  3213                           	
  3214  0551                     l4614:	
  3215                           ;Main Card V10.0.c: 324: WriteFIFO('C');
  3216  0551  3043               	movlw	(043h)
  3217  0552  120A  158A  23E1   	fcall	_WriteFIFO
              120A  118A         
  3218                           	line	327
  3219                           ;Main Card V10.0.c: 327: while(dataString[i] != 0)
  3220  0557  2D74               	goto	l4620
  3221                           	
  3222  0558                     l1128:	
  3223                           	line	329
  3224                           	
  3225  0558                     l4616:	
  3226                           ;Main Card V10.0.c: 328: {
  3227                           ;Main Card V10.0.c: 329: WriteFIFO(dataString[i]);
  3228  0558  1283               	bcf	status, 5	;RP0=0, select bank0
  3229  0559  1303               	bcf	status, 6	;RP1=0, select bank0
  3230  055A  0839               	movf	(TransmittString@i),w
  3231  055B  0735               	addwf	(TransmittString@dataString),w
  3232  055C  0084               	movwf	fsr0
  3233  055D  0836               	movf	(TransmittString@dataString+1),w
  3234  055E  1803               	skipnc
  3235  055F  0A36               	incf	(TransmittString@dataString+1),w
  3236  0560  00FF               	movwf	btemp+1
  3237  0561  120A  118A  2600   	fcall	stringtab
              120A  118A         
  3238  0566  120A  158A  23E1   	fcall	_WriteFIFO
              120A  118A         
  3239                           	line	330
  3240                           	
  3241  056B                     l4618:	
  3242                           ;Main Card V10.0.c: 330: i++;
  3243  056B  3001               	movlw	low(01h)
  3244  056C  1283               	bcf	status, 5	;RP0=0, select bank0
  3245  056D  1303               	bcf	status, 6	;RP1=0, select bank0
  3246  056E  07B9               	addwf	(TransmittString@i),f
  3247  056F  1803               	skipnc
  3248  0570  0ABA               	incf	(TransmittString@i+1),f
  3249  0571  3000               	movlw	high(01h)
  3250  0572  07BA               	addwf	(TransmittString@i+1),f
  3251  0573  2D74               	goto	l4620
  3252                           	line	331
  3253                           	
  3254  0574                     l1127:	
  3255                           	line	327
  3256                           	
  3257  0574                     l4620:	
  3258  0574  1283               	bcf	status, 5	;RP0=0, select bank0
  3259  0575  1303               	bcf	status, 6	;RP1=0, select bank0
  3260  0576  0839               	movf	(TransmittString@i),w
  3261  0577  0735               	addwf	(TransmittString@dataString),w
  3262  0578  0084               	movwf	fsr0
  3263  0579  0836               	movf	(TransmittString@dataString+1),w
  3264  057A  1803               	skipnc
  3265  057B  0A36               	incf	(TransmittString@dataString+1),w
  3266  057C  00FF               	movwf	btemp+1
  3267  057D  120A  118A  2600   	fcall	stringtab
              120A  118A         
  3268  0582  3800               	iorlw	0
  3269  0583  1D03               	skipz
  3270  0584  2D86               	goto	u3681
  3271  0585  2D87               	goto	u3680
  3272  0586                     u3681:
  3273  0586  2D58               	goto	l4616
  3274  0587                     u3680:
  3275  0587  2D91               	goto	l1130
  3276                           	
  3277  0588                     l1129:	
  3278                           	line	334
  3279                           ;Main Card V10.0.c: 331: }
  3280                           ;Main Card V10.0.c: 334: while(!PORTBbits.RB4)
  3281  0588  2D91               	goto	l1130
  3282                           	
  3283  0589                     l1131:	
  3284                           	line	336
  3285                           	
  3286  0589                     l4622:	
  3287                           ;Main Card V10.0.c: 335: {
  3288                           ;Main Card V10.0.c: 336: if(bTimerComplete[4])
  3289  0589  1683               	bsf	status, 5	;RP0=1, select bank1
  3290  058A  1303               	bcf	status, 6	;RP1=0, select bank1
  3291  058B  082E               	movf	0+(_bTimerComplete)^080h+04h,w
  3292  058C  1D03               	skipz
  3293  058D  2D8F               	goto	u3690
  3294  058E  2D91               	goto	l1130
  3295  058F                     u3690:
  3296  058F  2D97               	goto	l4626
  3297                           	line	337
  3298                           	
  3299  0590                     l4624:	
  3300                           ;Main Card V10.0.c: 337: break;
  3301  0590  2D97               	goto	l4626
  3302                           	
  3303  0591                     l1132:	
  3304                           	line	338
  3305                           	
  3306  0591                     l1130:	
  3307                           	line	334
  3308  0591  1283               	bcf	status, 5	;RP0=0, select bank0
  3309  0592  1E06               	btfss	(6),4	;volatile
  3310  0593  2D95               	goto	u3701
  3311  0594  2D96               	goto	u3700
  3312  0595                     u3701:
  3313  0595  2D89               	goto	l4622
  3314  0596                     u3700:
  3315  0596  2D97               	goto	l4626
  3316                           	
  3317  0597                     l1133:	
  3318                           	line	339
  3319                           	
  3320  0597                     l4626:	
  3321                           ;Main Card V10.0.c: 338: }
  3322                           ;Main Card V10.0.c: 339: _delay((unsigned long)((10)*(4000000/4000000.0)));
  3323                           	opt asmopt_off
  3324  0597  3003               movlw	3
  3325  0598  1283               	bcf	status, 5	;RP0=0, select bank0
  3326  0599  00B7               movwf	(??_TransmittString+0)+0,f
  3327  059A                     u4067:
  3328  059A  0BB7               decfsz	(??_TransmittString+0)+0,f
  3329  059B  2D9A               	goto	u4067
  3330                           opt asmopt_on
  3331                           
  3332                           	line	340
  3333                           	
  3334  059C                     l4628:	
  3335                           ;Main Card V10.0.c: 340: SetRFMode(0x00);
  3336  059C  3000               	movlw	(0)
  3337  059D  120A  158A  2790   	fcall	_SetRFMode
              120A  118A         
  3338                           	line	341
  3339                           	
  3340  05A2                     l4630:	
  3341                           ;Main Card V10.0.c: 341: _delay((unsigned long)((1)*(4000000/4000.0)));
  3342                           	opt asmopt_off
  3343  05A2  30F9               movlw	249
  3344  05A3  1283               	bcf	status, 5	;RP0=0, select bank0
  3345  05A4  1303               	bcf	status, 6	;RP1=0, select bank0
  3346  05A5  00B7               movwf	(??_TransmittString+0)+0,f
  3347  05A6                     u4077:
  3348  05A6  0064               	clrwdt
  3349  05A7  0BB7               decfsz	(??_TransmittString+0)+0,f
  3350  05A8  2DA6               	goto	u4077
  3351  05A9  2DAA               	nop2	;nop
  3352  05AA  0064               	clrwdt
  3353                           opt asmopt_on
  3354                           
  3355                           	line	343
  3356                           	
  3357  05AB                     l1134:	
  3358  05AB  0008               	return
  3359                           	opt stack 0
  3360                           GLOBAL	__end_of_TransmittString
  3361  05AC                     	__end_of_TransmittString:
  3362 ;; =============== function _TransmittString ends ============
  3363                           
  3364                           	signat	_TransmittString,4216
  3365                           	global	_TransiverToReceive
  3366                           psect	text817,local,class=CODE,delta=2
  3367                           global __ptext817
  3368  0F29                     __ptext817:
  3369                           
  3370 ;; *************** function _TransiverToReceive *****************
  3371 ;; Defined at:
  3372 ;;		line 164 in file "C:\Users\Seba\Documents\Projekt\Bustel\Bustel_Project\Bustel Card v10.0 code v1.7.1\Main Card V10.
       0.c"
  3373 ;; Parameters:    Size  Location     Type
  3374 ;;		None
  3375 ;; Auto vars:     Size  Location     Type
  3376 ;;		None
  3377 ;; Return value:  Size  Location     Type
  3378 ;;		None               void
  3379 ;; Registers used:
  3380 ;;		wreg, fsr0l, fsr0h, status,2, status,0, btemp+1, pclath, cstack
  3381 ;; Tracked objects:
  3382 ;;		On entry : 0/0
  3383 ;;		On exit  : 0/0
  3384 ;;		Unchanged: 0/0
  3385 ;; Data sizes:     COMMON   BANK0   BANK1   BANK3   BANK2
  3386 ;;      Params:         0       0       0       0       0
  3387 ;;      Locals:         0       0       0       0       0
  3388 ;;      Temps:          0       2       0       0       0
  3389 ;;      Totals:         0       2       0       0       0
  3390 ;;Total ram usage:        2 bytes
  3391 ;; Hardware stack levels used:    1
  3392 ;; Hardware stack levels required when called:    7
  3393 ;; This function calls:
  3394 ;;		_timerFunction
  3395 ;;		_SetRFMode
  3396 ;;		_RegisterRead
  3397 ;;		_RegisterSet
  3398 ;;		_FindChannel
  3399 ;; This function is called by:
  3400 ;;		_main
  3401 ;; This function uses a non-reentrant model
  3402 ;;
  3403                           psect	text817
  3404                           	file	"C:\Users\Seba\Documents\Projekt\Bustel\Bustel_Project\Bustel Card v10.0 code v1.7
                                 .1\Main Card V10.0.c"
  3405                           	line	164
  3406                           	global	__size_of_TransiverToReceive
  3407  0067                     	__size_of_TransiverToReceive	equ	__end_of_TransiverToReceive-_TransiverToReceive
  3408                           	
  3409  0F29                     _TransiverToReceive:	
  3410                           	opt	stack 0
  3411                           ; Regs used in _TransiverToReceive: [wreg-fsr0h+status,2+status,0+btemp+1+pclath+cstack]
  3412                           	line	165
  3413                           	
  3414  0F29                     l4566:	
  3415                           ;Main Card V10.0.c: 165: timerFunction(2, 5);
  3416  0F29  3002               	movlw	low(02h)
  3417  0F2A  1283               	bcf	status, 5	;RP0=0, select bank0
  3418  0F2B  1303               	bcf	status, 6	;RP1=0, select bank0
  3419  0F2C  00A0               	movwf	(?_timerFunction)
  3420  0F2D  3000               	movlw	high(02h)
  3421  0F2E  00A1               	movwf	((?_timerFunction))+1
  3422  0F2F  3005               	movlw	low(05h)
  3423  0F30  00A2               	movwf	0+(?_timerFunction)+02h
  3424  0F31  3000               	movlw	high(05h)
  3425  0F32  00A3               	movwf	(0+(?_timerFunction)+02h)+1
  3426  0F33  120A  158A  2421   	fcall	_timerFunction
              120A  158A         
  3427                           	line	169
  3428                           ;Main Card V10.0.c: 169: SetRFMode(0x20);
  3429  0F38  3020               	movlw	(020h)
  3430  0F39  120A  158A  2790   	fcall	_SetRFMode
              120A  158A         
  3431                           	line	170
  3432                           	
  3433  0F3E                     l4568:	
  3434                           ;Main Card V10.0.c: 170: _delay((unsigned long)((10)*(4000000/4000.0)));
  3435                           	opt asmopt_off
  3436  0F3E  300D               movlw	13
  3437  0F3F  1283               	bcf	status, 5	;RP0=0, select bank0
  3438  0F40  1303               	bcf	status, 6	;RP1=0, select bank0
  3439  0F41  00B6               movwf	((??_TransiverToReceive+0)+0+1),f
  3440  0F42  30FB               	movlw	251
  3441  0F43  00B5               movwf	((??_TransiverToReceive+0)+0),f
  3442  0F44                     u4087:
  3443  0F44  0BB5               	decfsz	((??_TransiverToReceive+0)+0),f
  3444  0F45  2F44               	goto	u4087
  3445  0F46  0BB6               	decfsz	((??_TransiverToReceive+0)+0+1),f
  3446  0F47  2F44               	goto	u4087
  3447  0F48  2F49               	nop2
  3448                           opt asmopt_on
  3449                           
  3450                           	line	171
  3451                           	
  3452  0F49                     l4570:	
  3453                           ;Main Card V10.0.c: 171: RegisterSet(0x0E,(RegisterRead(0x0E)|0x02));
  3454  0F49  300E               	movlw	(0Eh)
  3455  0F4A  120A  158A  2498   	fcall	_RegisterRead
              120A  158A         
  3456  0F4F  3802               	iorlw	02h
  3457  0F50  1283               	bcf	status, 5	;RP0=0, select bank0
  3458  0F51  1303               	bcf	status, 6	;RP1=0, select bank0
  3459  0F52  00B5               	movwf	(??_TransiverToReceive+0)+0
  3460  0F53  0835               	movf	(??_TransiverToReceive+0)+0,w
  3461  0F54  00A3               	movwf	(?_RegisterSet)
  3462  0F55  300E               	movlw	(0Eh)
  3463  0F56  120A  158A  247C   	fcall	_RegisterSet
              120A  158A         
  3464                           	line	172
  3465                           	
  3466  0F5B                     l4572:	
  3467                           ;Main Card V10.0.c: 172: SetRFMode(0x40);
  3468  0F5B  3040               	movlw	(040h)
  3469  0F5C  120A  158A  2790   	fcall	_SetRFMode
              120A  158A         
  3470                           	line	173
  3471                           ;Main Card V10.0.c: 173: while((RegisterRead(0x0E) & 0b00000010) == 0)
  3472  0F61  2F6F               	goto	l4578
  3473                           	
  3474  0F62                     l1073:	
  3475                           	line	175
  3476                           	
  3477  0F62                     l4574:	
  3478                           ;Main Card V10.0.c: 174: {
  3479                           ;Main Card V10.0.c: 175: if(bTimerComplete[2])
  3480  0F62  1683               	bsf	status, 5	;RP0=1, select bank1
  3481  0F63  1303               	bcf	status, 6	;RP1=0, select bank1
  3482  0F64  082C               	movf	0+(_bTimerComplete)^080h+02h,w
  3483  0F65  1D03               	skipz
  3484  0F66  2F68               	goto	u3640
  3485  0F67  2F6F               	goto	l4578
  3486  0F68                     u3640:
  3487                           	line	177
  3488                           	
  3489  0F68                     l4576:	
  3490                           ;Main Card V10.0.c: 176: {
  3491                           ;Main Card V10.0.c: 177: FindChannel();
  3492  0F68  120A  118A  21F6   	fcall	_FindChannel
              120A  158A         
  3493                           	line	178
  3494                           ;Main Card V10.0.c: 178: break;
  3495  0F6D  2F7D               	goto	l4580
  3496                           	line	179
  3497                           	
  3498  0F6E                     l1074:	
  3499  0F6E  2F6F               	goto	l4578
  3500                           	line	180
  3501                           	
  3502  0F6F                     l1072:	
  3503                           	line	173
  3504                           	
  3505  0F6F                     l4578:	
  3506  0F6F  300E               	movlw	(0Eh)
  3507  0F70  120A  158A  2498   	fcall	_RegisterRead
              120A  158A         
  3508  0F75  1283               	bcf	status, 5	;RP0=0, select bank0
  3509  0F76  1303               	bcf	status, 6	;RP1=0, select bank0
  3510  0F77  00B5               	movwf	(??_TransiverToReceive+0)+0
  3511  0F78  1CB5               	btfss	0+(??_TransiverToReceive+0)+0,(1)&7
  3512  0F79  2F7B               	goto	u3651
  3513  0F7A  2F7C               	goto	u3650
  3514  0F7B                     u3651:
  3515  0F7B  2F62               	goto	l4574
  3516  0F7C                     u3650:
  3517  0F7C  2F7D               	goto	l4580
  3518                           	
  3519  0F7D                     l1075:	
  3520                           	line	182
  3521                           	
  3522  0F7D                     l4580:	
  3523                           ;Main Card V10.0.c: 179: }
  3524                           ;Main Card V10.0.c: 180: }
  3525                           ;Main Card V10.0.c: 182: SetRFMode(0x60);
  3526  0F7D  3060               	movlw	(060h)
  3527  0F7E  120A  158A  2790   	fcall	_SetRFMode
              120A  158A         
  3528                           	line	183
  3529                           	
  3530  0F83                     l4582:	
  3531                           ;Main Card V10.0.c: 183: _delay((unsigned long)((500)*(4000000/4000000.0)));
  3532                           	opt asmopt_off
  3533  0F83  30A6               movlw	166
  3534  0F84  1283               	bcf	status, 5	;RP0=0, select bank0
  3535  0F85  1303               	bcf	status, 6	;RP1=0, select bank0
  3536  0F86  00B5               movwf	(??_TransiverToReceive+0)+0,f
  3537  0F87                     u4097:
  3538  0F87  0BB5               decfsz	(??_TransiverToReceive+0)+0,f
  3539  0F88  2F87               	goto	u4097
  3540  0F89  0064               	clrwdt
  3541                           opt asmopt_on
  3542                           
  3543                           	line	184
  3544                           	
  3545  0F8A                     l4584:	
  3546                           ;Main Card V10.0.c: 184: bTransiverModeReceive = 1;
  3547  0F8A  1283               	bcf	status, 5	;RP0=0, select bank0
  3548  0F8B  1303               	bcf	status, 6	;RP1=0, select bank0
  3549  0F8C  01EB               	clrf	(_bTransiverModeReceive)
  3550  0F8D  1403               	bsf	status,0
  3551  0F8E  0DEB               	rlf	(_bTransiverModeReceive),f
  3552                           	line	185
  3553                           	
  3554  0F8F                     l1076:	
  3555  0F8F  0008               	return
  3556                           	opt stack 0
  3557                           GLOBAL	__end_of_TransiverToReceive
  3558  0F90                     	__end_of_TransiverToReceive:
  3559 ;; =============== function _TransiverToReceive ends ============
  3560                           
  3561                           	signat	_TransiverToReceive,88
  3562                           	global	_Mode_2
  3563                           psect	text818,local,class=CODE,delta=2
  3564                           global __ptext818
  3565  0BEF                     __ptext818:
  3566                           
  3567 ;; *************** function _Mode_2 *****************
  3568 ;; Defined at:
  3569 ;;		line 373 in file "C:\Users\Seba\Documents\Projekt\Bustel\Bustel_Project\Bustel Card v10.0 code v1.7.1\Main Card V10.
       0.c"
  3570 ;; Parameters:    Size  Location     Type
  3571 ;;		None
  3572 ;; Auto vars:     Size  Location     Type
  3573 ;;		None
  3574 ;; Return value:  Size  Location     Type
  3575 ;;		None               void
  3576 ;; Registers used:
  3577 ;;		wreg, fsr0l, fsr0h, status,2, status,0, pclath, cstack
  3578 ;; Tracked objects:
  3579 ;;		On entry : 0/0
  3580 ;;		On exit  : 0/0
  3581 ;;		Unchanged: 0/0
  3582 ;; Data sizes:     COMMON   BANK0   BANK1   BANK3   BANK2
  3583 ;;      Params:         0       0       0       0       0
  3584 ;;      Locals:         0       0       0       0       0
  3585 ;;      Temps:          0       0       0       0       0
  3586 ;;      Totals:         0       0       0       0       0
  3587 ;;Total ram usage:        0 bytes
  3588 ;; Hardware stack levels used:    1
  3589 ;; Hardware stack levels required when called:    6
  3590 ;; This function calls:
  3591 ;;		_LightWithSensController
  3592 ;; This function is called by:
  3593 ;;		_main
  3594 ;; This function uses a non-reentrant model
  3595 ;;
  3596                           psect	text818
  3597                           	file	"C:\Users\Seba\Documents\Projekt\Bustel\Bustel_Project\Bustel Card v10.0 code v1.7
                                 .1\Main Card V10.0.c"
  3598                           	line	373
  3599                           	global	__size_of_Mode_2
  3600  0010                     	__size_of_Mode_2	equ	__end_of_Mode_2-_Mode_2
  3601                           	
  3602  0BEF                     _Mode_2:	
  3603                           	opt	stack 1
  3604                           ; Regs used in _Mode_2: [wreg-fsr0h+status,2+status,0+pclath+cstack]
  3605                           	line	374
  3606                           	
  3607  0BEF                     l4560:	
  3608                           ;Main Card V10.0.c: 374: LightWithSensController();
  3609  0BEF  120A  158A  26D0   	fcall	_LightWithSensController
              120A  158A         
  3610                           	line	375
  3611                           	
  3612  0BF4                     l4562:	
  3613                           ;Main Card V10.0.c: 375: if(PORTCbits.RC2)
  3614  0BF4  1283               	bcf	status, 5	;RP0=0, select bank0
  3615  0BF5  1303               	bcf	status, 6	;RP1=0, select bank0
  3616  0BF6  1D07               	btfss	(7),2	;volatile
  3617  0BF7  2BF9               	goto	u3631
  3618  0BF8  2BFA               	goto	u3630
  3619  0BF9                     u3631:
  3620  0BF9  2BFC               	goto	l1146
  3621  0BFA                     u3630:
  3622                           	line	376
  3623                           	
  3624  0BFA                     l4564:	
  3625                           ;Main Card V10.0.c: 376: PORTCbits.RC1 = 1;
  3626  0BFA  1487               	bsf	(7),1	;volatile
  3627  0BFB  2BFE               	goto	l1148
  3628                           	line	377
  3629                           	
  3630  0BFC                     l1146:	
  3631                           	line	378
  3632                           ;Main Card V10.0.c: 377: else
  3633                           ;Main Card V10.0.c: 378: PORTCbits.RC1 = 0;
  3634  0BFC  1087               	bcf	(7),1	;volatile
  3635  0BFD  2BFE               	goto	l1148
  3636                           	
  3637  0BFE                     l1147:	
  3638                           	line	379
  3639                           	
  3640  0BFE                     l1148:	
  3641  0BFE  0008               	return
  3642                           	opt stack 0
  3643                           GLOBAL	__end_of_Mode_2
  3644  0BFF                     	__end_of_Mode_2:
  3645 ;; =============== function _Mode_2 ends ============
  3646                           
  3647                           	signat	_Mode_2,88
  3648                           	global	_Mode_0
  3649                           psect	text819,local,class=CODE,delta=2
  3650                           global __ptext819
  3651  0BBF                     __ptext819:
  3652                           
  3653 ;; *************** function _Mode_0 *****************
  3654 ;; Defined at:
  3655 ;;		line 351 in file "C:\Users\Seba\Documents\Projekt\Bustel\Bustel_Project\Bustel Card v10.0 code v1.7.1\Main Card V10.
       0.c"
  3656 ;; Parameters:    Size  Location     Type
  3657 ;;		None
  3658 ;; Auto vars:     Size  Location     Type
  3659 ;;		None
  3660 ;; Return value:  Size  Location     Type
  3661 ;;		None               void
  3662 ;; Registers used:
  3663 ;;		wreg, fsr0l, fsr0h, status,2, status,0, pclath, cstack
  3664 ;; Tracked objects:
  3665 ;;		On entry : 0/0
  3666 ;;		On exit  : 0/0
  3667 ;;		Unchanged: 0/0
  3668 ;; Data sizes:     COMMON   BANK0   BANK1   BANK3   BANK2
  3669 ;;      Params:         0       0       0       0       0
  3670 ;;      Locals:         0       0       0       0       0
  3671 ;;      Temps:          0       0       0       0       0
  3672 ;;      Totals:         0       0       0       0       0
  3673 ;;Total ram usage:        0 bytes
  3674 ;; Hardware stack levels used:    1
  3675 ;; Hardware stack levels required when called:    6
  3676 ;; This function calls:
  3677 ;;		_LightWithSensController
  3678 ;; This function is called by:
  3679 ;;		_main
  3680 ;; This function uses a non-reentrant model
  3681 ;;
  3682                           psect	text819
  3683                           	file	"C:\Users\Seba\Documents\Projekt\Bustel\Bustel_Project\Bustel Card v10.0 code v1.7
                                 .1\Main Card V10.0.c"
  3684                           	line	351
  3685                           	global	__size_of_Mode_0
  3686  0006                     	__size_of_Mode_0	equ	__end_of_Mode_0-_Mode_0
  3687                           	
  3688  0BBF                     _Mode_0:	
  3689                           	opt	stack 1
  3690                           ; Regs used in _Mode_0: [wreg-fsr0h+status,2+status,0+pclath+cstack]
  3691                           	line	352
  3692                           	
  3693  0BBF                     l4558:	
  3694                           ;Main Card V10.0.c: 352: LightWithSensController();
  3695  0BBF  120A  158A  26D0   	fcall	_LightWithSensController
              120A  158A         
  3696                           	line	353
  3697                           	
  3698  0BC4                     l1137:	
  3699  0BC4  0008               	return
  3700                           	opt stack 0
  3701                           GLOBAL	__end_of_Mode_0
  3702  0BC5                     	__end_of_Mode_0:
  3703 ;; =============== function _Mode_0 ends ============
  3704                           
  3705                           	signat	_Mode_0,88
  3706                           	global	_TransiverInit
  3707                           psect	text820,local,class=CODE,delta=2
  3708                           global __ptext820
  3709  02FC                     __ptext820:
  3710                           
  3711 ;; *************** function _TransiverInit *****************
  3712 ;; Defined at:
  3713 ;;		line 595 in file "C:\Users\Seba\Documents\Projekt\Bustel\Bustel_Project\Bustel Card v10.0 code v1.7.1\Main Card V10.
       0.c"
  3714 ;; Parameters:    Size  Location     Type
  3715 ;;		None
  3716 ;; Auto vars:     Size  Location     Type
  3717 ;;		None
  3718 ;; Return value:  Size  Location     Type
  3719 ;;		None               void
  3720 ;; Registers used:
  3721 ;;		wreg, fsr0l, fsr0h, status,2, status,0, btemp+1, pclath, cstack
  3722 ;; Tracked objects:
  3723 ;;		On entry : 0/0
  3724 ;;		On exit  : 0/0
  3725 ;;		Unchanged: 0/0
  3726 ;; Data sizes:     COMMON   BANK0   BANK1   BANK3   BANK2
  3727 ;;      Params:         0       0       0       0       0
  3728 ;;      Locals:         0       0       0       0       0
  3729 ;;      Temps:          0       1       0       0       0
  3730 ;;      Totals:         0       1       0       0       0
  3731 ;;Total ram usage:        1 bytes
  3732 ;; Hardware stack levels used:    1
  3733 ;; Hardware stack levels required when called:    7
  3734 ;; This function calls:
  3735 ;;		_RegisterSet
  3736 ;;		_RegisterRead
  3737 ;;		_FindChannel
  3738 ;;		_Blink
  3739 ;;		_SetRFMode
  3740 ;; This function is called by:
  3741 ;;		_main
  3742 ;; This function uses a non-reentrant model
  3743 ;;
  3744                           psect	text820
  3745                           	file	"C:\Users\Seba\Documents\Projekt\Bustel\Bustel_Project\Bustel Card v10.0 code v1.7
                                 .1\Main Card V10.0.c"
  3746                           	line	595
  3747                           	global	__size_of_TransiverInit
  3748  00EF                     	__size_of_TransiverInit	equ	__end_of_TransiverInit-_TransiverInit
  3749                           	
  3750  02FC                     _TransiverInit:	
  3751                           	opt	stack 0
  3752                           ; Regs used in _TransiverInit: [wreg-fsr0h+status,2+status,0+btemp+1+pclath+cstack]
  3753                           	line	597
  3754                           	
  3755  02FC                     l4550:	
  3756                           ;Main Card V10.0.c: 597: RegisterSet(0x00, 0x30);
  3757  02FC  3030               	movlw	(030h)
  3758  02FD  1283               	bcf	status, 5	;RP0=0, select bank0
  3759  02FE  1303               	bcf	status, 6	;RP1=0, select bank0
  3760  02FF  00B5               	movwf	(??_TransiverInit+0)+0
  3761  0300  0835               	movf	(??_TransiverInit+0)+0,w
  3762  0301  00A3               	movwf	(?_RegisterSet)
  3763  0302  3000               	movlw	(0)
  3764  0303  120A  158A  247C   	fcall	_RegisterSet
              120A  118A         
  3765                           	line	598
  3766                           ;Main Card V10.0.c: 598: RegisterSet(0x01,(0xA8));
  3767  0308  30A8               	movlw	(0A8h)
  3768  0309  1283               	bcf	status, 5	;RP0=0, select bank0
  3769  030A  1303               	bcf	status, 6	;RP1=0, select bank0
  3770  030B  00B5               	movwf	(??_TransiverInit+0)+0
  3771  030C  0835               	movf	(??_TransiverInit+0)+0,w
  3772  030D  00A3               	movwf	(?_RegisterSet)
  3773  030E  3001               	movlw	(01h)
  3774  030F  120A  158A  247C   	fcall	_RegisterSet
              120A  118A         
  3775                           	line	599
  3776                           ;Main Card V10.0.c: 599: RegisterSet(0x02, 0x09);
  3777  0314  3009               	movlw	(09h)
  3778  0315  1283               	bcf	status, 5	;RP0=0, select bank0
  3779  0316  1303               	bcf	status, 6	;RP1=0, select bank0
  3780  0317  00B5               	movwf	(??_TransiverInit+0)+0
  3781  0318  0835               	movf	(??_TransiverInit+0)+0,w
  3782  0319  00A3               	movwf	(?_RegisterSet)
  3783  031A  3002               	movlw	(02h)
  3784  031B  120A  158A  247C   	fcall	_RegisterSet
              120A  118A         
  3785                           	line	600
  3786                           ;Main Card V10.0.c: 600: RegisterSet(0x03, 0x07);
  3787  0320  3007               	movlw	(07h)
  3788  0321  1283               	bcf	status, 5	;RP0=0, select bank0
  3789  0322  1303               	bcf	status, 6	;RP1=0, select bank0
  3790  0323  00B5               	movwf	(??_TransiverInit+0)+0
  3791  0324  0835               	movf	(??_TransiverInit+0)+0,w
  3792  0325  00A3               	movwf	(?_RegisterSet)
  3793  0326  3003               	movlw	(03h)
  3794  0327  120A  158A  247C   	fcall	_RegisterSet
              120A  118A         
  3795                           	line	601
  3796                           ;Main Card V10.0.c: 601: RegisterSet(0x05,(0x0A));
  3797  032C  300A               	movlw	(0Ah)
  3798  032D  1283               	bcf	status, 5	;RP0=0, select bank0
  3799  032E  1303               	bcf	status, 6	;RP1=0, select bank0
  3800  032F  00B5               	movwf	(??_TransiverInit+0)+0
  3801  0330  0835               	movf	(??_TransiverInit+0)+0,w
  3802  0331  00A3               	movwf	(?_RegisterSet)
  3803  0332  3005               	movlw	(05h)
  3804  0333  120A  158A  247C   	fcall	_RegisterSet
              120A  118A         
  3805                           	line	602
  3806                           ;Main Card V10.0.c: 602: RegisterSet(0x0D,(0x00|0xB0|0x09));
  3807  0338  30B9               	movlw	(0B9h)
  3808  0339  1283               	bcf	status, 5	;RP0=0, select bank0
  3809  033A  1303               	bcf	status, 6	;RP1=0, select bank0
  3810  033B  00B5               	movwf	(??_TransiverInit+0)+0
  3811  033C  0835               	movf	(??_TransiverInit+0)+0,w
  3812  033D  00A3               	movwf	(?_RegisterSet)
  3813  033E  300D               	movlw	(0Dh)
  3814  033F  120A  158A  247C   	fcall	_RegisterSet
              120A  118A         
  3815                           	line	603
  3816                           ;Main Card V10.0.c: 603: RegisterSet(0x0E,(0x01|0x10|0x01));
  3817  0344  3011               	movlw	(011h)
  3818  0345  1283               	bcf	status, 5	;RP0=0, select bank0
  3819  0346  1303               	bcf	status, 6	;RP1=0, select bank0
  3820  0347  00B5               	movwf	(??_TransiverInit+0)+0
  3821  0348  0835               	movf	(??_TransiverInit+0)+0,w
  3822  0349  00A3               	movwf	(?_RegisterSet)
  3823  034A  300E               	movlw	(0Eh)
  3824  034B  120A  158A  247C   	fcall	_RegisterSet
              120A  118A         
  3825                           	line	604
  3826                           ;Main Card V10.0.c: 604: RegisterSet(0x10, 0xA3);
  3827  0350  30A3               	movlw	(0A3h)
  3828  0351  1283               	bcf	status, 5	;RP0=0, select bank0
  3829  0352  1303               	bcf	status, 6	;RP1=0, select bank0
  3830  0353  00B5               	movwf	(??_TransiverInit+0)+0
  3831  0354  0835               	movf	(??_TransiverInit+0)+0,w
  3832  0355  00A3               	movwf	(?_RegisterSet)
  3833  0356  3010               	movlw	(010h)
  3834  0357  120A  158A  247C   	fcall	_RegisterSet
              120A  118A         
  3835                           	line	605
  3836                           ;Main Card V10.0.c: 605: RegisterSet(0x12,(0x18|0x20|0x06));
  3837  035C  303E               	movlw	(03Eh)
  3838  035D  1283               	bcf	status, 5	;RP0=0, select bank0
  3839  035E  1303               	bcf	status, 6	;RP1=0, select bank0
  3840  035F  00B5               	movwf	(??_TransiverInit+0)+0
  3841  0360  0835               	movf	(??_TransiverInit+0)+0,w
  3842  0361  00A3               	movwf	(?_RegisterSet)
  3843  0362  3012               	movlw	(012h)
  3844  0363  120A  158A  247C   	fcall	_RegisterSet
              120A  118A         
  3845                           	line	606
  3846                           ;Main Card V10.0.c: 606: RegisterSet(0x16,('S'));
  3847  0368  3053               	movlw	(053h)
  3848  0369  1283               	bcf	status, 5	;RP0=0, select bank0
  3849  036A  1303               	bcf	status, 6	;RP1=0, select bank0
  3850  036B  00B5               	movwf	(??_TransiverInit+0)+0
  3851  036C  0835               	movf	(??_TransiverInit+0)+0,w
  3852  036D  00A3               	movwf	(?_RegisterSet)
  3853  036E  3016               	movlw	(016h)
  3854  036F  120A  158A  247C   	fcall	_RegisterSet
              120A  118A         
  3855                           	line	607
  3856                           ;Main Card V10.0.c: 607: RegisterSet(0x17,('Y'));
  3857  0374  3059               	movlw	(059h)
  3858  0375  1283               	bcf	status, 5	;RP0=0, select bank0
  3859  0376  1303               	bcf	status, 6	;RP1=0, select bank0
  3860  0377  00B5               	movwf	(??_TransiverInit+0)+0
  3861  0378  0835               	movf	(??_TransiverInit+0)+0,w
  3862  0379  00A3               	movwf	(?_RegisterSet)
  3863  037A  3017               	movlw	(017h)
  3864  037B  120A  158A  247C   	fcall	_RegisterSet
              120A  118A         
  3865                           	line	608
  3866                           ;Main Card V10.0.c: 608: RegisterSet(0x18,('N'));
  3867  0380  304E               	movlw	(04Eh)
  3868  0381  1283               	bcf	status, 5	;RP0=0, select bank0
  3869  0382  1303               	bcf	status, 6	;RP1=0, select bank0
  3870  0383  00B5               	movwf	(??_TransiverInit+0)+0
  3871  0384  0835               	movf	(??_TransiverInit+0)+0,w
  3872  0385  00A3               	movwf	(?_RegisterSet)
  3873  0386  3018               	movlw	(018h)
  3874  0387  120A  158A  247C   	fcall	_RegisterSet
              120A  118A         
  3875                           	line	609
  3876                           ;Main Card V10.0.c: 609: RegisterSet(0x19,('C'));
  3877  038C  3043               	movlw	(043h)
  3878  038D  1283               	bcf	status, 5	;RP0=0, select bank0
  3879  038E  1303               	bcf	status, 6	;RP1=0, select bank0
  3880  038F  00B5               	movwf	(??_TransiverInit+0)+0
  3881  0390  0835               	movf	(??_TransiverInit+0)+0,w
  3882  0391  00A3               	movwf	(?_RegisterSet)
  3883  0392  3019               	movlw	(019h)
  3884  0393  120A  158A  247C   	fcall	_RegisterSet
              120A  118A         
  3885                           	line	610
  3886                           ;Main Card V10.0.c: 610: RegisterSet(0x1A, 0x72);
  3887  0398  3072               	movlw	(072h)
  3888  0399  1283               	bcf	status, 5	;RP0=0, select bank0
  3889  039A  1303               	bcf	status, 6	;RP1=0, select bank0
  3890  039B  00B5               	movwf	(??_TransiverInit+0)+0
  3891  039C  0835               	movf	(??_TransiverInit+0)+0,w
  3892  039D  00A3               	movwf	(?_RegisterSet)
  3893  039E  301A               	movlw	(01Ah)
  3894  039F  120A  158A  247C   	fcall	_RegisterSet
              120A  118A         
  3895                           	line	611
  3896                           ;Main Card V10.0.c: 611: RegisterSet(0x1B, 0x3C);
  3897  03A4  303C               	movlw	(03Ch)
  3898  03A5  1283               	bcf	status, 5	;RP0=0, select bank0
  3899  03A6  1303               	bcf	status, 6	;RP1=0, select bank0
  3900  03A7  00B5               	movwf	(??_TransiverInit+0)+0
  3901  03A8  0835               	movf	(??_TransiverInit+0)+0,w
  3902  03A9  00A3               	movwf	(?_RegisterSet)
  3903  03AA  301B               	movlw	(01Bh)
  3904  03AB  120A  158A  247C   	fcall	_RegisterSet
              120A  118A         
  3905                           	line	612
  3906                           ;Main Card V10.0.c: 612: RegisterSet(0x1F, 0x80);
  3907  03B0  3080               	movlw	(080h)
  3908  03B1  1283               	bcf	status, 5	;RP0=0, select bank0
  3909  03B2  1303               	bcf	status, 6	;RP1=0, select bank0
  3910  03B3  00B5               	movwf	(??_TransiverInit+0)+0
  3911  03B4  0835               	movf	(??_TransiverInit+0)+0,w
  3912  03B5  00A3               	movwf	(?_RegisterSet)
  3913  03B6  301F               	movlw	(01Fh)
  3914  03B7  120A  158A  247C   	fcall	_RegisterSet
              120A  118A         
  3915                           	line	613
  3916                           ;Main Card V10.0.c: 613: RegisterSet(0x00, (RegisterRead(0x00)|0x01));
  3917  03BC  3000               	movlw	(0)
  3918  03BD  120A  158A  2498   	fcall	_RegisterRead
              120A  118A         
  3919  03C2  3801               	iorlw	01h
  3920  03C3  1283               	bcf	status, 5	;RP0=0, select bank0
  3921  03C4  1303               	bcf	status, 6	;RP1=0, select bank0
  3922  03C5  00B5               	movwf	(??_TransiverInit+0)+0
  3923  03C6  0835               	movf	(??_TransiverInit+0)+0,w
  3924  03C7  00A3               	movwf	(?_RegisterSet)
  3925  03C8  3000               	movlw	(0)
  3926  03C9  120A  158A  247C   	fcall	_RegisterSet
              120A  118A         
  3927                           	line	615
  3928                           	
  3929  03CE                     l4552:	
  3930                           ;Main Card V10.0.c: 615: if(FindChannel() == 1)
  3931  03CE  120A  118A  21F6   	fcall	_FindChannel
              120A  118A         
  3932  03D3  3A01               	xorlw	01h
  3933  03D4  1D03               	skipz
  3934  03D5  2BD7               	goto	u3621
  3935  03D6  2BD8               	goto	u3620
  3936  03D7                     u3621:
  3937  03D7  2BE4               	goto	l4556
  3938  03D8                     u3620:
  3939                           	line	616
  3940                           	
  3941  03D8                     l4554:	
  3942                           ;Main Card V10.0.c: 616: Blink(1);
  3943  03D8  3001               	movlw	low(01h)
  3944  03D9  1283               	bcf	status, 5	;RP0=0, select bank0
  3945  03DA  1303               	bcf	status, 6	;RP1=0, select bank0
  3946  03DB  00A6               	movwf	(?_Blink)
  3947  03DC  3000               	movlw	high(01h)
  3948  03DD  00A7               	movwf	((?_Blink))+1
  3949  03DE  120A  158A  2599   	fcall	_Blink
              120A  118A         
  3950  03E3  2BE4               	goto	l4556
  3951                           	
  3952  03E4                     l1201:	
  3953                           	line	617
  3954                           	
  3955  03E4                     l4556:	
  3956                           ;Main Card V10.0.c: 617: SetRFMode(0x00);
  3957  03E4  3000               	movlw	(0)
  3958  03E5  120A  158A  2790   	fcall	_SetRFMode
              120A  118A         
  3959                           	line	619
  3960                           	
  3961  03EA                     l1202:	
  3962  03EA  0008               	return
  3963                           	opt stack 0
  3964                           GLOBAL	__end_of_TransiverInit
  3965  03EB                     	__end_of_TransiverInit:
  3966 ;; =============== function _TransiverInit ends ============
  3967                           
  3968                           	signat	_TransiverInit,88
  3969                           	global	_LightWithSensController
  3970                           psect	text821,local,class=CODE,delta=2
  3971                           global __ptext821
  3972  0ED0                     __ptext821:
  3973                           
  3974 ;; *************** function _LightWithSensController *****************
  3975 ;; Defined at:
  3976 ;;		line 417 in file "C:\Users\Seba\Documents\Projekt\Bustel\Bustel_Project\Bustel Card v10.0 code v1.7.1\Main Card V10.
       0.c"
  3977 ;; Parameters:    Size  Location     Type
  3978 ;;		None
  3979 ;; Auto vars:     Size  Location     Type
  3980 ;;		None
  3981 ;; Return value:  Size  Location     Type
  3982 ;;		None               void
  3983 ;; Registers used:
  3984 ;;		wreg, fsr0l, fsr0h, status,2, status,0, pclath, cstack
  3985 ;; Tracked objects:
  3986 ;;		On entry : 0/0
  3987 ;;		On exit  : 0/0
  3988 ;;		Unchanged: 0/0
  3989 ;; Data sizes:     COMMON   BANK0   BANK1   BANK3   BANK2
  3990 ;;      Params:         0       0       0       0       0
  3991 ;;      Locals:         0       0       0       0       0
  3992 ;;      Temps:          0       0       0       0       0
  3993 ;;      Totals:         0       0       0       0       0
  3994 ;;Total ram usage:        0 bytes
  3995 ;; Hardware stack levels used:    1
  3996 ;; Hardware stack levels required when called:    5
  3997 ;; This function calls:
  3998 ;;		_DarknessCheck
  3999 ;;		_timerFunction
  4000 ;; This function is called by:
  4001 ;;		_Mode_0
  4002 ;;		_Mode_2
  4003 ;;		_Mode_4
  4004 ;;		_Mode_5
  4005 ;; This function uses a non-reentrant model
  4006 ;;
  4007                           psect	text821
  4008                           	file	"C:\Users\Seba\Documents\Projekt\Bustel\Bustel_Project\Bustel Card v10.0 code v1.7
                                 .1\Main Card V10.0.c"
  4009                           	line	417
  4010                           	global	__size_of_LightWithSensController
  4011  0059                     	__size_of_LightWithSensController	equ	__end_of_LightWithSensController-_LightWithSensCo
                                 ntroller
  4012                           	
  4013  0ED0                     _LightWithSensController:	
  4014                           	opt	stack 1
  4015                           ; Regs used in _LightWithSensController: [wreg-fsr0h+status,2+status,0+pclath+cstack]
  4016                           	line	420
  4017                           	
  4018  0ED0                     l4524:	
  4019                           ;Main Card V10.0.c: 420: if((intSecondCounter == 30)&&(!PORTCbits.RC2))
  4020  0ED0  301E               	movlw	01Eh
  4021  0ED1  1283               	bcf	status, 5	;RP0=0, select bank0
  4022  0ED2  1303               	bcf	status, 6	;RP1=0, select bank0
  4023  0ED3  0667               	xorwf	(_intSecondCounter),w
  4024  0ED4  0468               	iorwf	(_intSecondCounter+1),w
  4025  0ED5  1D03               	skipz
  4026  0ED6  2ED8               	goto	u3541
  4027  0ED7  2ED9               	goto	u3540
  4028  0ED8                     u3541:
  4029  0ED8  2EE3               	goto	l4530
  4030  0ED9                     u3540:
  4031                           	
  4032  0ED9                     l4526:	
  4033  0ED9  1907               	btfsc	(7),2	;volatile
  4034  0EDA  2EDC               	goto	u3551
  4035  0EDB  2EDD               	goto	u3550
  4036  0EDC                     u3551:
  4037  0EDC  2EE3               	goto	l4530
  4038  0EDD                     u3550:
  4039                           	line	421
  4040                           	
  4041  0EDD                     l4528:	
  4042                           ;Main Card V10.0.c: 421: DarknessCheck();
  4043  0EDD  120A  158A  2533   	fcall	_DarknessCheck
              120A  158A         
  4044  0EE2  2EE3               	goto	l4530
  4045                           	
  4046  0EE3                     l1162:	
  4047                           	line	425
  4048                           	
  4049  0EE3                     l4530:	
  4050                           ;Main Card V10.0.c: 425: if((bDark == 1)&&(PORTAbits.RA1)&&(!PORTCbits.RC2))
  4051  0EE3  1283               	bcf	status, 5	;RP0=0, select bank0
  4052  0EE4  1303               	bcf	status, 6	;RP1=0, select bank0
  4053  0EE5  086A               	movf	(_bDark),w
  4054  0EE6  3A01               	xorlw	01h
  4055  0EE7  1D03               	skipz
  4056  0EE8  2EEA               	goto	u3561
  4057  0EE9  2EEB               	goto	u3560
  4058  0EEA                     u3561:
  4059  0EEA  2F02               	goto	l4540
  4060  0EEB                     u3560:
  4061                           	
  4062  0EEB                     l4532:	
  4063  0EEB  1C85               	btfss	(5),1	;volatile
  4064  0EEC  2EEE               	goto	u3571
  4065  0EED  2EEF               	goto	u3570
  4066  0EEE                     u3571:
  4067  0EEE  2F02               	goto	l4540
  4068  0EEF                     u3570:
  4069                           	
  4070  0EEF                     l4534:	
  4071  0EEF  1907               	btfsc	(7),2	;volatile
  4072  0EF0  2EF2               	goto	u3581
  4073  0EF1  2EF3               	goto	u3580
  4074  0EF2                     u3581:
  4075  0EF2  2F02               	goto	l4540
  4076  0EF3                     u3580:
  4077                           	line	428
  4078                           	
  4079  0EF3                     l4536:	
  4080                           ;Main Card V10.0.c: 426: {
  4081                           ;Main Card V10.0.c: 428: PORTCbits.RC2 = 1;
  4082  0EF3  1507               	bsf	(7),2	;volatile
  4083                           	line	430
  4084                           	
  4085  0EF4                     l4538:	
  4086                           ;Main Card V10.0.c: 430: timerFunction(0,120);
  4087  0EF4  3000               	movlw	low(0)
  4088  0EF5  00A0               	movwf	(?_timerFunction)
  4089  0EF6  3000               	movlw	high(0)
  4090  0EF7  00A1               	movwf	((?_timerFunction))+1
  4091  0EF8  3078               	movlw	low(078h)
  4092  0EF9  00A2               	movwf	0+(?_timerFunction)+02h
  4093  0EFA  3000               	movlw	high(078h)
  4094  0EFB  00A3               	movwf	(0+(?_timerFunction)+02h)+1
  4095  0EFC  120A  158A  2421   	fcall	_timerFunction
              120A  158A         
  4096  0F01  2F02               	goto	l4540
  4097                           	line	431
  4098                           	
  4099  0F02                     l1163:	
  4100                           	line	434
  4101                           	
  4102  0F02                     l4540:	
  4103                           ;Main Card V10.0.c: 431: }
  4104                           ;Main Card V10.0.c: 434: if(bTimerComplete[0])
  4105  0F02  1683               	bsf	status, 5	;RP0=1, select bank1
  4106  0F03  1303               	bcf	status, 6	;RP1=0, select bank1
  4107  0F04  082A               	movf	(_bTimerComplete)^080h,w
  4108  0F05  1D03               	skipz
  4109  0F06  2F08               	goto	u3590
  4110  0F07  2F28               	goto	l1167
  4111  0F08                     u3590:
  4112                           	line	436
  4113                           	
  4114  0F08                     l4542:	
  4115                           ;Main Card V10.0.c: 435: {
  4116                           ;Main Card V10.0.c: 436: DarknessCheck();
  4117  0F08  120A  158A  2533   	fcall	_DarknessCheck
              120A  158A         
  4118                           	line	437
  4119                           	
  4120  0F0D                     l4544:	
  4121                           ;Main Card V10.0.c: 437: if((bDark)&&(PORTAbits.RA1))
  4122  0F0D  1283               	bcf	status, 5	;RP0=0, select bank0
  4123  0F0E  1303               	bcf	status, 6	;RP1=0, select bank0
  4124  0F0F  086A               	movf	(_bDark),w
  4125  0F10  1D03               	skipz
  4126  0F11  2F13               	goto	u3600
  4127  0F12  2F25               	goto	l1165
  4128  0F13                     u3600:
  4129                           	
  4130  0F13                     l4546:	
  4131  0F13  1C85               	btfss	(5),1	;volatile
  4132  0F14  2F16               	goto	u3611
  4133  0F15  2F17               	goto	u3610
  4134  0F16                     u3611:
  4135  0F16  2F25               	goto	l1165
  4136  0F17                     u3610:
  4137                           	line	439
  4138                           	
  4139  0F17                     l4548:	
  4140                           ;Main Card V10.0.c: 438: {
  4141                           ;Main Card V10.0.c: 439: timerFunction(0,120);
  4142  0F17  3000               	movlw	low(0)
  4143  0F18  00A0               	movwf	(?_timerFunction)
  4144  0F19  3000               	movlw	high(0)
  4145  0F1A  00A1               	movwf	((?_timerFunction))+1
  4146  0F1B  3078               	movlw	low(078h)
  4147  0F1C  00A2               	movwf	0+(?_timerFunction)+02h
  4148  0F1D  3000               	movlw	high(078h)
  4149  0F1E  00A3               	movwf	(0+(?_timerFunction)+02h)+1
  4150  0F1F  120A  158A  2421   	fcall	_timerFunction
              120A  158A         
  4151                           	line	440
  4152                           ;Main Card V10.0.c: 440: }
  4153  0F24  2F28               	goto	l1167
  4154                           	line	441
  4155                           	
  4156  0F25                     l1165:	
  4157                           	line	442
  4158                           ;Main Card V10.0.c: 441: else
  4159                           ;Main Card V10.0.c: 442: PORTCbits.RC2 = 0;
  4160  0F25  1107               	bcf	(7),2	;volatile
  4161  0F26  2F28               	goto	l1167
  4162                           	
  4163  0F27                     l1166:	
  4164  0F27  2F28               	goto	l1167
  4165                           	line	444
  4166                           	
  4167  0F28                     l1164:	
  4168                           	line	446
  4169                           	
  4170  0F28                     l1167:	
  4171  0F28  0008               	return
  4172                           	opt stack 0
  4173                           GLOBAL	__end_of_LightWithSensController
  4174  0F29                     	__end_of_LightWithSensController:
  4175 ;; =============== function _LightWithSensController ends ============
  4176                           
  4177                           	signat	_LightWithSensController,88
  4178                           	global	_FindChannel
  4179                           psect	text822,local,class=CODE,delta=2
  4180                           global __ptext822
  4181  01F6                     __ptext822:
  4182                           
  4183 ;; *************** function _FindChannel *****************
  4184 ;; Defined at:
  4185 ;;		line 640 in file "C:\Users\Seba\Documents\Projekt\Bustel\Bustel_Project\Bustel Card v10.0 code v1.7.1\Main Card V10.
       0.c"
  4186 ;; Parameters:    Size  Location     Type
  4187 ;;		None
  4188 ;; Auto vars:     Size  Location     Type
  4189 ;;  i               2   19[BANK0 ] int 
  4190 ;;  cnt             2   17[BANK0 ] int 
  4191 ;; Return value:  Size  Location     Type
  4192 ;;                  1    wreg      unsigned char 
  4193 ;; Registers used:
  4194 ;;		wreg, fsr0l, fsr0h, status,2, status,0, btemp+1, pclath, cstack
  4195 ;; Tracked objects:
  4196 ;;		On entry : 0/0
  4197 ;;		On exit  : 0/0
  4198 ;;		Unchanged: 0/0
  4199 ;; Data sizes:     COMMON   BANK0   BANK1   BANK3   BANK2
  4200 ;;      Params:         0       0       0       0       0
  4201 ;;      Locals:         0       4       0       0       0
  4202 ;;      Temps:          0       3       0       0       0
  4203 ;;      Totals:         0       7       0       0       0
  4204 ;;Total ram usage:        7 bytes
  4205 ;; Hardware stack levels used:    1
  4206 ;; Hardware stack levels required when called:    6
  4207 ;; This function calls:
  4208 ;;		_RegisterSet
  4209 ;;		_RegisterRead
  4210 ;;		_SetRFMode
  4211 ;; This function is called by:
  4212 ;;		_TransiverToReceive
  4213 ;;		_TransmittString
  4214 ;;		_TransiverInit
  4215 ;; This function uses a non-reentrant model
  4216 ;;
  4217                           psect	text822
  4218                           	file	"C:\Users\Seba\Documents\Projekt\Bustel\Bustel_Project\Bustel Card v10.0 code v1.7
                                 .1\Main Card V10.0.c"
  4219                           	line	640
  4220                           	global	__size_of_FindChannel
  4221  0106                     	__size_of_FindChannel	equ	__end_of_FindChannel-_FindChannel
  4222                           	
  4223  01F6                     _FindChannel:	
  4224 ;; hardware stack exceeded
  4225                           	opt	stack 0
  4226                           ; Regs used in _FindChannel: [wreg-fsr0h+status,2+status,0+btemp+1+pclath+cstack]
  4227                           	line	641
  4228                           	
  4229  01F6                     l4484:	
  4230                           ;Main Card V10.0.c: 641: int cnt = 0;
  4231  01F6  1283               	bcf	status, 5	;RP0=0, select bank0
  4232  01F7  1303               	bcf	status, 6	;RP1=0, select bank0
  4233  01F8  01B1               	clrf	(FindChannel@cnt)
  4234  01F9  01B2               	clrf	(FindChannel@cnt+1)
  4235                           	line	642
  4236                           	
  4237  01FA                     l4486:	
  4238                           ;Main Card V10.0.c: 642: bChannelFound = 0;
  4239  01FA  01E9               	clrf	(_bChannelFound)
  4240                           	line	643
  4241                           ;Main Card V10.0.c: 643: channelFound = 0;
  4242  01FB  01DD               	clrf	(_channelFound)
  4243  01FC  01DE               	clrf	(_channelFound+1)
  4244                           	line	645
  4245                           	
  4246  01FD                     l4488:	
  4247                           ;Main Card V10.0.c: 645: _delay((unsigned long)((1000)*(4000000/4000.0)));
  4248                           	opt asmopt_off
  4249  01FD  3006               movlw  6
  4250  01FE  00B0               movwf	((??_FindChannel+0)+0+2),f
  4251  01FF  3013               movlw	19
  4252  0200  00AF               movwf	((??_FindChannel+0)+0+1),f
  4253  0201  30B1               	movlw	177
  4254  0202  00AE               movwf	((??_FindChannel+0)+0),f
  4255  0203                     u4107:
  4256  0203  0BAE               	decfsz	((??_FindChannel+0)+0),f
  4257  0204  2A03               	goto	u4107
  4258  0205  0BAF               	decfsz	((??_FindChannel+0)+0+1),f
  4259  0206  2A03               	goto	u4107
  4260  0207  0BB0               	decfsz	((??_FindChannel+0)+0+2),f
  4261  0208  2A03               	goto	u4107
  4262  0209  2A0A               	nop2
  4263                           opt asmopt_on
  4264                           
  4265                           	line	646
  4266                           	
  4267  020A                     l4490:	
  4268                           ;Main Card V10.0.c: 646: for (int i = 0; i < 13; i++)
  4269  020A  1283               	bcf	status, 5	;RP0=0, select bank0
  4270  020B  1303               	bcf	status, 6	;RP1=0, select bank0
  4271  020C  01B3               	clrf	(FindChannel@i)
  4272  020D  01B4               	clrf	(FindChannel@i+1)
  4273                           	
  4274  020E                     l4492:	
  4275  020E  0834               	movf	(FindChannel@i+1),w
  4276  020F  3A80               	xorlw	80h
  4277  0210  00FF               	movwf	btemp+1
  4278  0211  3080               	movlw	(high(0Dh))^80h
  4279  0212  027F               	subwf	btemp+1,w
  4280  0213  1D03               	skipz
  4281  0214  2A17               	goto	u3505
  4282  0215  300D               	movlw	low(0Dh)
  4283  0216  0233               	subwf	(FindChannel@i),w
  4284  0217                     u3505:
  4285                           
  4286  0217  1C03               	skipc
  4287  0218  2A1A               	goto	u3501
  4288  0219  2A1B               	goto	u3500
  4289  021A                     u3501:
  4290  021A  2A1D               	goto	l4496
  4291  021B                     u3500:
  4292  021B  2AF9               	goto	l4520
  4293                           	
  4294  021C                     l4494:	
  4295  021C  2AF9               	goto	l4520
  4296                           	line	647
  4297                           	
  4298  021D                     l1205:	
  4299                           	line	648
  4300                           	
  4301  021D                     l4496:	
  4302                           ;Main Card V10.0.c: 647: {
  4303                           ;Main Card V10.0.c: 648: RegisterSet(0x06,ChannelR[i]);
  4304  021D  1283               	bcf	status, 5	;RP0=0, select bank0
  4305  021E  1303               	bcf	status, 6	;RP1=0, select bank0
  4306  021F  0833               	movf	(FindChannel@i),w
  4307  0220  3E0E               	addlw	low((_ChannelR-__stringbase))
  4308  0221  0084               	movwf	fsr0
  4309  0222  120A  118A  260A   	fcall	stringdir
              120A  118A         
  4310  0227  00AE               	movwf	(??_FindChannel+0)+0
  4311  0228  082E               	movf	(??_FindChannel+0)+0,w
  4312  0229  00A3               	movwf	(?_RegisterSet)
  4313  022A  3006               	movlw	(06h)
  4314  022B  120A  158A  247C   	fcall	_RegisterSet
              120A  118A         
  4315                           	line	649
  4316                           ;Main Card V10.0.c: 649: RegisterSet(0x07,ChannelP[i]);
  4317  0230  1283               	bcf	status, 5	;RP0=0, select bank0
  4318  0231  1303               	bcf	status, 6	;RP1=0, select bank0
  4319  0232  0833               	movf	(FindChannel@i),w
  4320  0233  3E01               	addlw	low((_ChannelP-__stringbase))
  4321  0234  0084               	movwf	fsr0
  4322  0235  120A  118A  260A   	fcall	stringdir
              120A  118A         
  4323  023A  00AE               	movwf	(??_FindChannel+0)+0
  4324  023B  082E               	movf	(??_FindChannel+0)+0,w
  4325  023C  00A3               	movwf	(?_RegisterSet)
  4326  023D  3007               	movlw	(07h)
  4327  023E  120A  158A  247C   	fcall	_RegisterSet
              120A  118A         
  4328                           	line	650
  4329                           ;Main Card V10.0.c: 650: RegisterSet(0x08,ChannelS[i]);
  4330  0243  1283               	bcf	status, 5	;RP0=0, select bank0
  4331  0244  1303               	bcf	status, 6	;RP1=0, select bank0
  4332  0245  0833               	movf	(FindChannel@i),w
  4333  0246  3E1B               	addlw	low((_ChannelS-__stringbase))
  4334  0247  0084               	movwf	fsr0
  4335  0248  120A  118A  260A   	fcall	stringdir
              120A  118A         
  4336  024D  00AE               	movwf	(??_FindChannel+0)+0
  4337  024E  082E               	movf	(??_FindChannel+0)+0,w
  4338  024F  00A3               	movwf	(?_RegisterSet)
  4339  0250  3008               	movlw	(08h)
  4340  0251  120A  158A  247C   	fcall	_RegisterSet
              120A  118A         
  4341                           	line	651
  4342                           ;Main Card V10.0.c: 651: RegisterSet(0x09,ChannelR[i]);
  4343  0256  1283               	bcf	status, 5	;RP0=0, select bank0
  4344  0257  1303               	bcf	status, 6	;RP1=0, select bank0
  4345  0258  0833               	movf	(FindChannel@i),w
  4346  0259  3E0E               	addlw	low((_ChannelR-__stringbase))
  4347  025A  0084               	movwf	fsr0
  4348  025B  120A  118A  260A   	fcall	stringdir
              120A  118A         
  4349  0260  00AE               	movwf	(??_FindChannel+0)+0
  4350  0261  082E               	movf	(??_FindChannel+0)+0,w
  4351  0262  00A3               	movwf	(?_RegisterSet)
  4352  0263  3009               	movlw	(09h)
  4353  0264  120A  158A  247C   	fcall	_RegisterSet
              120A  118A         
  4354                           	line	652
  4355                           ;Main Card V10.0.c: 652: RegisterSet(0x0A,ChannelP[i]);
  4356  0269  1283               	bcf	status, 5	;RP0=0, select bank0
  4357  026A  1303               	bcf	status, 6	;RP1=0, select bank0
  4358  026B  0833               	movf	(FindChannel@i),w
  4359  026C  3E01               	addlw	low((_ChannelP-__stringbase))
  4360  026D  0084               	movwf	fsr0
  4361  026E  120A  118A  260A   	fcall	stringdir
              120A  118A         
  4362  0273  00AE               	movwf	(??_FindChannel+0)+0
  4363  0274  082E               	movf	(??_FindChannel+0)+0,w
  4364  0275  00A3               	movwf	(?_RegisterSet)
  4365  0276  300A               	movlw	(0Ah)
  4366  0277  120A  158A  247C   	fcall	_RegisterSet
              120A  118A         
  4367                           	line	653
  4368                           ;Main Card V10.0.c: 653: RegisterSet(0x0B,ChannelS[i]);
  4369  027C  1283               	bcf	status, 5	;RP0=0, select bank0
  4370  027D  1303               	bcf	status, 6	;RP1=0, select bank0
  4371  027E  0833               	movf	(FindChannel@i),w
  4372  027F  3E1B               	addlw	low((_ChannelS-__stringbase))
  4373  0280  0084               	movwf	fsr0
  4374  0281  120A  118A  260A   	fcall	stringdir
              120A  118A         
  4375  0286  00AE               	movwf	(??_FindChannel+0)+0
  4376  0287  082E               	movf	(??_FindChannel+0)+0,w
  4377  0288  00A3               	movwf	(?_RegisterSet)
  4378  0289  300B               	movlw	(0Bh)
  4379  028A  120A  158A  247C   	fcall	_RegisterSet
              120A  118A         
  4380                           	line	654
  4381                           	
  4382  028F                     l4498:	
  4383                           ;Main Card V10.0.c: 654: RegisterSet(0x0E,(RegisterRead(0x0E)|0x02));
  4384  028F  300E               	movlw	(0Eh)
  4385  0290  120A  158A  2498   	fcall	_RegisterRead
              120A  118A         
  4386  0295  3802               	iorlw	02h
  4387  0296  1283               	bcf	status, 5	;RP0=0, select bank0
  4388  0297  1303               	bcf	status, 6	;RP1=0, select bank0
  4389  0298  00AE               	movwf	(??_FindChannel+0)+0
  4390  0299  082E               	movf	(??_FindChannel+0)+0,w
  4391  029A  00A3               	movwf	(?_RegisterSet)
  4392  029B  300E               	movlw	(0Eh)
  4393  029C  120A  158A  247C   	fcall	_RegisterSet
              120A  118A         
  4394                           	line	655
  4395                           	
  4396  02A1                     l4500:	
  4397                           ;Main Card V10.0.c: 655: SetRFMode(0x40);
  4398  02A1  3040               	movlw	(040h)
  4399  02A2  120A  158A  2790   	fcall	_SetRFMode
              120A  118A         
  4400                           	line	656
  4401                           	
  4402  02A7                     l4502:	
  4403                           ;Main Card V10.0.c: 656: cnt = 0;
  4404  02A7  1283               	bcf	status, 5	;RP0=0, select bank0
  4405  02A8  1303               	bcf	status, 6	;RP1=0, select bank0
  4406  02A9  01B1               	clrf	(FindChannel@cnt)
  4407  02AA  01B2               	clrf	(FindChannel@cnt+1)
  4408                           	line	657
  4409                           ;Main Card V10.0.c: 657: while(cnt < 5)
  4410  02AB  2AD3               	goto	l4514
  4411                           	
  4412  02AC                     l1208:	
  4413                           	line	660
  4414                           	
  4415  02AC                     l4504:	
  4416                           ;Main Card V10.0.c: 658: {
  4417                           ;Main Card V10.0.c: 660: if((RegisterRead(0x0E) & 0b00000010) != 0)
  4418  02AC  300E               	movlw	(0Eh)
  4419  02AD  120A  158A  2498   	fcall	_RegisterRead
              120A  118A         
  4420  02B2  1283               	bcf	status, 5	;RP0=0, select bank0
  4421  02B3  1303               	bcf	status, 6	;RP1=0, select bank0
  4422  02B4  00AE               	movwf	(??_FindChannel+0)+0
  4423  02B5  1CAE               	btfss	0+(??_FindChannel+0)+0,(1)&7
  4424  02B6  2AB8               	goto	u3511
  4425  02B7  2AB9               	goto	u3510
  4426  02B8                     u3511:
  4427  02B8  2AC5               	goto	l4512
  4428  02B9                     u3510:
  4429                           	line	662
  4430                           	
  4431  02B9                     l4506:	
  4432                           ;Main Card V10.0.c: 661: {
  4433                           ;Main Card V10.0.c: 662: bChannelFound = 1;
  4434  02B9  01E9               	clrf	(_bChannelFound)
  4435  02BA  1403               	bsf	status,0
  4436  02BB  0DE9               	rlf	(_bChannelFound),f
  4437                           	line	663
  4438                           	
  4439  02BC                     l4508:	
  4440                           ;Main Card V10.0.c: 663: channelFound = i;
  4441  02BC  0834               	movf	(FindChannel@i+1),w
  4442  02BD  01DE               	clrf	(_channelFound+1)
  4443  02BE  07DE               	addwf	(_channelFound+1)
  4444  02BF  0833               	movf	(FindChannel@i),w
  4445  02C0  01DD               	clrf	(_channelFound)
  4446  02C1  07DD               	addwf	(_channelFound)
  4447                           
  4448                           	line	664
  4449                           ;Main Card V10.0.c: 664: return 1;
  4450  02C2  3001               	movlw	(01h)
  4451  02C3  2AFB               	goto	l1210
  4452                           	
  4453  02C4                     l4510:	
  4454  02C4  2AFB               	goto	l1210
  4455                           	line	665
  4456                           	
  4457  02C5                     l1209:	
  4458                           	line	666
  4459                           	
  4460  02C5                     l4512:	
  4461                           ;Main Card V10.0.c: 665: }
  4462                           ;Main Card V10.0.c: 666: cnt++;
  4463  02C5  3001               	movlw	low(01h)
  4464  02C6  07B1               	addwf	(FindChannel@cnt),f
  4465  02C7  1803               	skipnc
  4466  02C8  0AB2               	incf	(FindChannel@cnt+1),f
  4467  02C9  3000               	movlw	high(01h)
  4468  02CA  07B2               	addwf	(FindChannel@cnt+1),f
  4469                           	line	667
  4470                           ;Main Card V10.0.c: 667: _delay((unsigned long)((1000)*(4000000/4000000.0)));
  4471                           	opt asmopt_off
  4472  02CB  30F9               movlw	249
  4473  02CC  00AE               movwf	(??_FindChannel+0)+0,f
  4474  02CD                     u4117:
  4475  02CD  0064               	clrwdt
  4476  02CE  0BAE               decfsz	(??_FindChannel+0)+0,f
  4477  02CF  2ACD               	goto	u4117
  4478  02D0  2AD1               	nop2	;nop
  4479  02D1  0064               	clrwdt
  4480                           opt asmopt_on
  4481                           
  4482  02D2  2AD3               	goto	l4514
  4483                           	line	668
  4484                           	
  4485  02D3                     l1207:	
  4486                           	line	657
  4487                           	
  4488  02D3                     l4514:	
  4489  02D3  1283               	bcf	status, 5	;RP0=0, select bank0
  4490  02D4  1303               	bcf	status, 6	;RP1=0, select bank0
  4491  02D5  0832               	movf	(FindChannel@cnt+1),w
  4492  02D6  3A80               	xorlw	80h
  4493  02D7  00FF               	movwf	btemp+1
  4494  02D8  3080               	movlw	(high(05h))^80h
  4495  02D9  027F               	subwf	btemp+1,w
  4496  02DA  1D03               	skipz
  4497  02DB  2ADE               	goto	u3525
  4498  02DC  3005               	movlw	low(05h)
  4499  02DD  0231               	subwf	(FindChannel@cnt),w
  4500  02DE                     u3525:
  4501                           
  4502  02DE  1C03               	skipc
  4503  02DF  2AE1               	goto	u3521
  4504  02E0  2AE2               	goto	u3520
  4505  02E1                     u3521:
  4506  02E1  2AAC               	goto	l4504
  4507  02E2                     u3520:
  4508  02E2  2AE3               	goto	l4516
  4509                           	
  4510  02E3                     l1211:	
  4511                           	line	646
  4512                           	
  4513  02E3                     l4516:	
  4514  02E3  3001               	movlw	low(01h)
  4515  02E4  1283               	bcf	status, 5	;RP0=0, select bank0
  4516  02E5  1303               	bcf	status, 6	;RP1=0, select bank0
  4517  02E6  07B3               	addwf	(FindChannel@i),f
  4518  02E7  1803               	skipnc
  4519  02E8  0AB4               	incf	(FindChannel@i+1),f
  4520  02E9  3000               	movlw	high(01h)
  4521  02EA  07B4               	addwf	(FindChannel@i+1),f
  4522                           	
  4523  02EB                     l4518:	
  4524  02EB  0834               	movf	(FindChannel@i+1),w
  4525  02EC  3A80               	xorlw	80h
  4526  02ED  00FF               	movwf	btemp+1
  4527  02EE  3080               	movlw	(high(0Dh))^80h
  4528  02EF  027F               	subwf	btemp+1,w
  4529  02F0  1D03               	skipz
  4530  02F1  2AF4               	goto	u3535
  4531  02F2  300D               	movlw	low(0Dh)
  4532  02F3  0233               	subwf	(FindChannel@i),w
  4533  02F4                     u3535:
  4534                           
  4535  02F4  1C03               	skipc
  4536  02F5  2AF7               	goto	u3531
  4537  02F6  2AF8               	goto	u3530
  4538  02F7                     u3531:
  4539  02F7  2A1D               	goto	l4496
  4540  02F8                     u3530:
  4541  02F8  2AF9               	goto	l4520
  4542                           	
  4543  02F9                     l1206:	
  4544                           	line	672
  4545                           	
  4546  02F9                     l4520:	
  4547                           ;Main Card V10.0.c: 668: }
  4548                           ;Main Card V10.0.c: 671: }
  4549                           ;Main Card V10.0.c: 672: return 0;
  4550  02F9  3000               	movlw	(0)
  4551  02FA  2AFB               	goto	l1210
  4552                           	
  4553  02FB                     l4522:	
  4554                           	line	674
  4555                           	
  4556  02FB                     l1210:	
  4557  02FB  0008               	return
  4558                           	opt stack 0
  4559                           GLOBAL	__end_of_FindChannel
  4560  02FC                     	__end_of_FindChannel:
  4561 ;; =============== function _FindChannel ends ============
  4562                           
  4563                           	signat	_FindChannel,89
  4564                           	global	_Mode_1
  4565                           psect	text823,local,class=CODE,delta=2
  4566                           global __ptext823
  4567  0CB7                     __ptext823:
  4568                           
  4569 ;; *************** function _Mode_1 *****************
  4570 ;; Defined at:
  4571 ;;		line 359 in file "C:\Users\Seba\Documents\Projekt\Bustel\Bustel_Project\Bustel Card v10.0 code v1.7.1\Main Card V10.
       0.c"
  4572 ;; Parameters:    Size  Location     Type
  4573 ;;		None
  4574 ;; Auto vars:     Size  Location     Type
  4575 ;;		None
  4576 ;; Return value:  Size  Location     Type
  4577 ;;		None               void
  4578 ;; Registers used:
  4579 ;;		wreg, status,2, status,0, pclath, cstack
  4580 ;; Tracked objects:
  4581 ;;		On entry : 0/0
  4582 ;;		On exit  : 0/0
  4583 ;;		Unchanged: 0/0
  4584 ;; Data sizes:     COMMON   BANK0   BANK1   BANK3   BANK2
  4585 ;;      Params:         0       0       0       0       0
  4586 ;;      Locals:         0       0       0       0       0
  4587 ;;      Temps:          0       0       0       0       0
  4588 ;;      Totals:         0       0       0       0       0
  4589 ;;Total ram usage:        0 bytes
  4590 ;; Hardware stack levels used:    1
  4591 ;; Hardware stack levels required when called:    5
  4592 ;; This function calls:
  4593 ;;		_DarknessCheck
  4594 ;; This function is called by:
  4595 ;;		_main
  4596 ;; This function uses a non-reentrant model
  4597 ;;
  4598                           psect	text823
  4599                           	file	"C:\Users\Seba\Documents\Projekt\Bustel\Bustel_Project\Bustel Card v10.0 code v1.7
                                 .1\Main Card V10.0.c"
  4600                           	line	359
  4601                           	global	__size_of_Mode_1
  4602  0027                     	__size_of_Mode_1	equ	__end_of_Mode_1-_Mode_1
  4603                           	
  4604  0CB7                     _Mode_1:	
  4605                           	opt	stack 2
  4606                           ; Regs used in _Mode_1: [wreg+status,2+status,0+pclath+cstack]
  4607                           	line	361
  4608                           	
  4609  0CB7                     l4472:	
  4610                           ;Main Card V10.0.c: 361: if((intSecondCounter == 30)&&(!PORTCbits.RC2))
  4611  0CB7  301E               	movlw	01Eh
  4612  0CB8  1283               	bcf	status, 5	;RP0=0, select bank0
  4613  0CB9  1303               	bcf	status, 6	;RP1=0, select bank0
  4614  0CBA  0667               	xorwf	(_intSecondCounter),w
  4615  0CBB  0468               	iorwf	(_intSecondCounter+1),w
  4616  0CBC  1D03               	skipz
  4617  0CBD  2CBF               	goto	u3461
  4618  0CBE  2CC0               	goto	u3460
  4619  0CBF                     u3461:
  4620  0CBF  2CCA               	goto	l4478
  4621  0CC0                     u3460:
  4622                           	
  4623  0CC0                     l4474:	
  4624  0CC0  1907               	btfsc	(7),2	;volatile
  4625  0CC1  2CC3               	goto	u3471
  4626  0CC2  2CC4               	goto	u3470
  4627  0CC3                     u3471:
  4628  0CC3  2CCA               	goto	l4478
  4629  0CC4                     u3470:
  4630                           	line	362
  4631                           	
  4632  0CC4                     l4476:	
  4633                           ;Main Card V10.0.c: 362: DarknessCheck();
  4634  0CC4  120A  158A  2533   	fcall	_DarknessCheck
              120A  158A         
  4635  0CC9  2CCA               	goto	l4478
  4636                           	
  4637  0CCA                     l1140:	
  4638                           	line	363
  4639                           	
  4640  0CCA                     l4478:	
  4641                           ;Main Card V10.0.c: 363: if((intBlinkCycle == 1)&&(bDark == 1))
  4642  0CCA  3001               	movlw	01h
  4643  0CCB  1283               	bcf	status, 5	;RP0=0, select bank0
  4644  0CCC  1303               	bcf	status, 6	;RP1=0, select bank0
  4645  0CCD  065F               	xorwf	(_intBlinkCycle),w
  4646  0CCE  0460               	iorwf	(_intBlinkCycle+1),w
  4647  0CCF  1D03               	skipz
  4648  0CD0  2CD2               	goto	u3481
  4649  0CD1  2CD3               	goto	u3480
  4650  0CD2                     u3481:
  4651  0CD2  2CDB               	goto	l1141
  4652  0CD3                     u3480:
  4653                           	
  4654  0CD3                     l4480:	
  4655  0CD3  086A               	movf	(_bDark),w
  4656  0CD4  3A01               	xorlw	01h
  4657  0CD5  1D03               	skipz
  4658  0CD6  2CD8               	goto	u3491
  4659  0CD7  2CD9               	goto	u3490
  4660  0CD8                     u3491:
  4661  0CD8  2CDB               	goto	l1141
  4662  0CD9                     u3490:
  4663                           	line	364
  4664                           	
  4665  0CD9                     l4482:	
  4666                           ;Main Card V10.0.c: 364: PORTCbits.RC2 = 1;
  4667  0CD9  1507               	bsf	(7),2	;volatile
  4668  0CDA  2CDD               	goto	l1143
  4669                           	line	365
  4670                           	
  4671  0CDB                     l1141:	
  4672                           	line	366
  4673                           ;Main Card V10.0.c: 365: else
  4674                           ;Main Card V10.0.c: 366: PORTCbits.RC2 = 0;
  4675  0CDB  1107               	bcf	(7),2	;volatile
  4676  0CDC  2CDD               	goto	l1143
  4677                           	
  4678  0CDD                     l1142:	
  4679                           	line	367
  4680                           	
  4681  0CDD                     l1143:	
  4682  0CDD  0008               	return
  4683                           	opt stack 0
  4684                           GLOBAL	__end_of_Mode_1
  4685  0CDE                     	__end_of_Mode_1:
  4686 ;; =============== function _Mode_1 ends ============
  4687                           
  4688                           	signat	_Mode_1,88
  4689                           	global	_DarknessCheck
  4690                           psect	text824,local,class=CODE,delta=2
  4691                           global __ptext824
  4692  0D33                     __ptext824:
  4693                           
  4694 ;; *************** function _DarknessCheck *****************
  4695 ;; Defined at:
  4696 ;;		line 941 in file "C:\Users\Seba\Documents\Projekt\Bustel\Bustel_Project\Bustel Card v10.0 code v1.7.1\Main Card V10.
       0.c"
  4697 ;; Parameters:    Size  Location     Type
  4698 ;;		None
  4699 ;; Auto vars:     Size  Location     Type
  4700 ;;  darknessValu    1    9[BANK0 ] unsigned char 
  4701 ;; Return value:  Size  Location     Type
  4702 ;;		None               void
  4703 ;; Registers used:
  4704 ;;		wreg, status,2, status,0, pclath, cstack
  4705 ;; Tracked objects:
  4706 ;;		On entry : 0/0
  4707 ;;		On exit  : 0/0
  4708 ;;		Unchanged: 0/0
  4709 ;; Data sizes:     COMMON   BANK0   BANK1   BANK3   BANK2
  4710 ;;      Params:         0       0       0       0       0
  4711 ;;      Locals:         0       1       0       0       0
  4712 ;;      Temps:          0       1       0       0       0
  4713 ;;      Totals:         0       2       0       0       0
  4714 ;;Total ram usage:        2 bytes
  4715 ;; Hardware stack levels used:    1
  4716 ;; Hardware stack levels required when called:    4
  4717 ;; This function calls:
  4718 ;;		_AnalogValue
  4719 ;; This function is called by:
  4720 ;;		_TransmittedDataHandler
  4721 ;;		_Mode_1
  4722 ;;		_LightWithSensController
  4723 ;; This function uses a non-reentrant model
  4724 ;;
  4725                           psect	text824
  4726                           	file	"C:\Users\Seba\Documents\Projekt\Bustel\Bustel_Project\Bustel Card v10.0 code v1.7
                                 .1\Main Card V10.0.c"
  4727                           	line	941
  4728                           	global	__size_of_DarknessCheck
  4729  002E                     	__size_of_DarknessCheck	equ	__end_of_DarknessCheck-_DarknessCheck
  4730                           	
  4731  0D33                     _DarknessCheck:	
  4732                           	opt	stack 1
  4733                           ; Regs used in _DarknessCheck: [wreg+status,2+status,0+pclath+cstack]
  4734                           	line	943
  4735                           	
  4736  0D33                     l4460:	
  4737                           ;Main Card V10.0.c: 942: unsigned char darknessValue;
  4738                           ;Main Card V10.0.c: 943: PORTCbits.RC0 = 0;
  4739  0D33  1283               	bcf	status, 5	;RP0=0, select bank0
  4740  0D34  1303               	bcf	status, 6	;RP1=0, select bank0
  4741  0D35  1007               	bcf	(7),0	;volatile
  4742                           	line	945
  4743                           	
  4744  0D36                     l4462:	
  4745                           ;Main Card V10.0.c: 945: if(bValueFromPot == TRUE)
  4746  0D36  086E               	movf	(_bValueFromPot),w
  4747  0D37  3A01               	xorlw	01h
  4748  0D38  1D03               	skipz
  4749  0D39  2D3B               	goto	u3441
  4750  0D3A  2D3C               	goto	u3440
  4751  0D3B                     u3441:
  4752  0D3B  2D48               	goto	l4466
  4753  0D3C                     u3440:
  4754                           	line	946
  4755                           	
  4756  0D3C                     l4464:	
  4757                           ;Main Card V10.0.c: 946: darknessValue= AnalogValue(3);
  4758  0D3C  3003               	movlw	(03h)
  4759  0D3D  120A  158A  2506   	fcall	_AnalogValue
              120A  158A         
  4760  0D42  1283               	bcf	status, 5	;RP0=0, select bank0
  4761  0D43  1303               	bcf	status, 6	;RP1=0, select bank0
  4762  0D44  00A8               	movwf	(??_DarknessCheck+0)+0
  4763  0D45  0828               	movf	(??_DarknessCheck+0)+0,w
  4764  0D46  00A9               	movwf	(DarknessCheck@darknessValue)
  4765  0D47  2D4D               	goto	l4468
  4766                           	line	947
  4767                           	
  4768  0D48                     l1262:	
  4769                           	line	948
  4770                           	
  4771  0D48                     l4466:	
  4772                           ;Main Card V10.0.c: 947: else
  4773                           ;Main Card V10.0.c: 948: darknessValue=chManualDarknessValue;
  4774  0D48  086F               	movf	(_chManualDarknessValue),w
  4775  0D49  00A8               	movwf	(??_DarknessCheck+0)+0
  4776  0D4A  0828               	movf	(??_DarknessCheck+0)+0,w
  4777  0D4B  00A9               	movwf	(DarknessCheck@darknessValue)
  4778  0D4C  2D4D               	goto	l4468
  4779                           	
  4780  0D4D                     l1263:	
  4781                           	line	950
  4782                           	
  4783  0D4D                     l4468:	
  4784                           ;Main Card V10.0.c: 950: if(AnalogValue(0)>darknessValue)
  4785  0D4D  3000               	movlw	(0)
  4786  0D4E  120A  158A  2506   	fcall	_AnalogValue
              120A  158A         
  4787  0D53  1283               	bcf	status, 5	;RP0=0, select bank0
  4788  0D54  1303               	bcf	status, 6	;RP1=0, select bank0
  4789  0D55  0229               	subwf	(DarknessCheck@darknessValue),w
  4790  0D56  1803               	skipnc
  4791  0D57  2D59               	goto	u3451
  4792  0D58  2D5A               	goto	u3450
  4793  0D59                     u3451:
  4794  0D59  2D5E               	goto	l1264
  4795  0D5A                     u3450:
  4796                           	line	951
  4797                           	
  4798  0D5A                     l4470:	
  4799                           ;Main Card V10.0.c: 951: bDark = 1;
  4800  0D5A  01EA               	clrf	(_bDark)
  4801  0D5B  1403               	bsf	status,0
  4802  0D5C  0DEA               	rlf	(_bDark),f
  4803  0D5D  2D5F               	goto	l1265
  4804                           	line	952
  4805                           	
  4806  0D5E                     l1264:	
  4807                           	line	953
  4808                           ;Main Card V10.0.c: 952: else
  4809                           ;Main Card V10.0.c: 953: bDark = 0;
  4810  0D5E  01EA               	clrf	(_bDark)
  4811                           	
  4812  0D5F                     l1265:	
  4813                           	line	954
  4814                           ;Main Card V10.0.c: 954: PORTCbits.RC0 = 0;
  4815  0D5F  1007               	bcf	(7),0	;volatile
  4816                           	line	956
  4817                           	
  4818  0D60                     l1266:	
  4819  0D60  0008               	return
  4820                           	opt stack 0
  4821                           GLOBAL	__end_of_DarknessCheck
  4822  0D61                     	__end_of_DarknessCheck:
  4823 ;; =============== function _DarknessCheck ends ============
  4824                           
  4825                           	signat	_DarknessCheck,88
  4826                           	global	_SetRFMode
  4827                           psect	text825,local,class=CODE,delta=2
  4828                           global __ptext825
  4829  0F90                     __ptext825:
  4830                           
  4831 ;; *************** function _SetRFMode *****************
  4832 ;; Defined at:
  4833 ;;		line 676 in file "C:\Users\Seba\Documents\Projekt\Bustel\Bustel_Project\Bustel Card v10.0 code v1.7.1\Main Card V10.
       0.c"
  4834 ;; Parameters:    Size  Location     Type
  4835 ;;  mode            1    wreg     unsigned char 
  4836 ;; Auto vars:     Size  Location     Type
  4837 ;;  mode            1   12[BANK0 ] unsigned char 
  4838 ;;  mcparam0_rea    1   13[BANK0 ] unsigned char 
  4839 ;; Return value:  Size  Location     Type
  4840 ;;		None               void
  4841 ;; Registers used:
  4842 ;;		wreg, fsr0l, fsr0h, status,2, status,0, pclath, cstack
  4843 ;; Tracked objects:
  4844 ;;		On entry : 0/0
  4845 ;;		On exit  : 0/0
  4846 ;;		Unchanged: 0/0
  4847 ;; Data sizes:     COMMON   BANK0   BANK1   BANK3   BANK2
  4848 ;;      Params:         0       0       0       0       0
  4849 ;;      Locals:         0       2       0       0       0
  4850 ;;      Temps:          0       1       0       0       0
  4851 ;;      Totals:         0       3       0       0       0
  4852 ;;Total ram usage:        3 bytes
  4853 ;; Hardware stack levels used:    1
  4854 ;; Hardware stack levels required when called:    5
  4855 ;; This function calls:
  4856 ;;		_RegisterRead
  4857 ;;		_RegisterSet
  4858 ;; This function is called by:
  4859 ;;		_TransiverToReceive
  4860 ;;		_TransiverReadFIFO
  4861 ;;		_TransmittString
  4862 ;;		_TransiverInit
  4863 ;;		_FindChannel
  4864 ;; This function uses a non-reentrant model
  4865 ;;
  4866                           psect	text825
  4867                           	file	"C:\Users\Seba\Documents\Projekt\Bustel\Bustel_Project\Bustel Card v10.0 code v1.7
                                 .1\Main Card V10.0.c"
  4868                           	line	676
  4869                           	global	__size_of_SetRFMode
  4870  0070                     	__size_of_SetRFMode	equ	__end_of_SetRFMode-_SetRFMode
  4871                           	
  4872  0F90                     _SetRFMode:	
  4873 ;; hardware stack exceeded
  4874                           	opt	stack 0
  4875                           ; Regs used in _SetRFMode: [wreg-fsr0h+status,2+status,0+pclath+cstack]
  4876                           ;SetRFMode@mode stored from wreg
  4877  0F90  1283               	bcf	status, 5	;RP0=0, select bank0
  4878  0F91  1303               	bcf	status, 6	;RP1=0, select bank0
  4879  0F92  00AC               	movwf	(SetRFMode@mode)
  4880                           	line	677
  4881                           	
  4882  0F93                     l4442:	
  4883                           ;Main Card V10.0.c: 677: PORTAbits.RA4 = 0;
  4884  0F93  1205               	bcf	(5),4	;volatile
  4885                           	line	679
  4886                           	
  4887  0F94                     l4444:	
  4888                           ;Main Card V10.0.c: 678: BYTE mcparam0_read;
  4889                           ;Main Card V10.0.c: 679: mcparam0_read = RegisterRead(0);
  4890  0F94  3000               	movlw	(0)
  4891  0F95  120A  158A  2498   	fcall	_RegisterRead
              120A  158A         
  4892  0F9A  1283               	bcf	status, 5	;RP0=0, select bank0
  4893  0F9B  1303               	bcf	status, 6	;RP1=0, select bank0
  4894  0F9C  00AB               	movwf	(??_SetRFMode+0)+0
  4895  0F9D  082B               	movf	(??_SetRFMode+0)+0,w
  4896  0F9E  00AD               	movwf	(SetRFMode@mcparam0_read)
  4897                           	line	680
  4898                           ;Main Card V10.0.c: 680: switch (mode) {
  4899  0F9F  2FE9               	goto	l4458
  4900                           	line	681
  4901                           ;Main Card V10.0.c: 681: case 0x80:
  4902                           	
  4903  0FA0                     l1215:	
  4904                           	line	682
  4905                           	
  4906  0FA0                     l4446:	
  4907                           ;Main Card V10.0.c: 682: RegisterSet(0, (mcparam0_read & 0x1F) | 0x80);
  4908  0FA0  082D               	movf	(SetRFMode@mcparam0_read),w
  4909  0FA1  391F               	andlw	01Fh
  4910  0FA2  3880               	iorlw	080h
  4911  0FA3  00AB               	movwf	(??_SetRFMode+0)+0
  4912  0FA4  082B               	movf	(??_SetRFMode+0)+0,w
  4913  0FA5  00A3               	movwf	(?_RegisterSet)
  4914  0FA6  3000               	movlw	(0)
  4915  0FA7  120A  158A  247C   	fcall	_RegisterSet
              120A  158A         
  4916                           	line	684
  4917                           ;Main Card V10.0.c: 684: break;
  4918  0FAC  2FFC               	goto	l1216
  4919                           	line	685
  4920                           ;Main Card V10.0.c: 685: case 0x60:
  4921                           	
  4922  0FAD                     l1217:	
  4923                           	line	686
  4924                           	
  4925  0FAD                     l4448:	
  4926                           ;Main Card V10.0.c: 686: RegisterSet(0, (mcparam0_read & 0x1F) | 0x60);
  4927  0FAD  1283               	bcf	status, 5	;RP0=0, select bank0
  4928  0FAE  1303               	bcf	status, 6	;RP1=0, select bank0
  4929  0FAF  082D               	movf	(SetRFMode@mcparam0_read),w
  4930  0FB0  391F               	andlw	01Fh
  4931  0FB1  3860               	iorlw	060h
  4932  0FB2  00AB               	movwf	(??_SetRFMode+0)+0
  4933  0FB3  082B               	movf	(??_SetRFMode+0)+0,w
  4934  0FB4  00A3               	movwf	(?_RegisterSet)
  4935  0FB5  3000               	movlw	(0)
  4936  0FB6  120A  158A  247C   	fcall	_RegisterSet
              120A  158A         
  4937                           	line	688
  4938                           ;Main Card V10.0.c: 688: break;
  4939  0FBB  2FFC               	goto	l1216
  4940                           	line	689
  4941                           ;Main Card V10.0.c: 689: case 0x40:
  4942                           	
  4943  0FBC                     l1218:	
  4944                           	line	690
  4945                           	
  4946  0FBC                     l4450:	
  4947                           ;Main Card V10.0.c: 690: RegisterSet(0, (mcparam0_read & 0x1F) | 0x40);
  4948  0FBC  1283               	bcf	status, 5	;RP0=0, select bank0
  4949  0FBD  1303               	bcf	status, 6	;RP1=0, select bank0
  4950  0FBE  082D               	movf	(SetRFMode@mcparam0_read),w
  4951  0FBF  391F               	andlw	01Fh
  4952  0FC0  3840               	iorlw	040h
  4953  0FC1  00AB               	movwf	(??_SetRFMode+0)+0
  4954  0FC2  082B               	movf	(??_SetRFMode+0)+0,w
  4955  0FC3  00A3               	movwf	(?_RegisterSet)
  4956  0FC4  3000               	movlw	(0)
  4957  0FC5  120A  158A  247C   	fcall	_RegisterSet
              120A  158A         
  4958                           	line	692
  4959                           ;Main Card V10.0.c: 692: break;
  4960  0FCA  2FFC               	goto	l1216
  4961                           	line	693
  4962                           ;Main Card V10.0.c: 693: case 0x20:
  4963                           	
  4964  0FCB                     l1219:	
  4965                           	line	694
  4966                           	
  4967  0FCB                     l4452:	
  4968                           ;Main Card V10.0.c: 694: RegisterSet(0, (mcparam0_read & 0x1F) | 0x20);
  4969  0FCB  1283               	bcf	status, 5	;RP0=0, select bank0
  4970  0FCC  1303               	bcf	status, 6	;RP1=0, select bank0
  4971  0FCD  082D               	movf	(SetRFMode@mcparam0_read),w
  4972  0FCE  391F               	andlw	01Fh
  4973  0FCF  3820               	iorlw	020h
  4974  0FD0  00AB               	movwf	(??_SetRFMode+0)+0
  4975  0FD1  082B               	movf	(??_SetRFMode+0)+0,w
  4976  0FD2  00A3               	movwf	(?_RegisterSet)
  4977  0FD3  3000               	movlw	(0)
  4978  0FD4  120A  158A  247C   	fcall	_RegisterSet
              120A  158A         
  4979                           	line	696
  4980                           ;Main Card V10.0.c: 696: break;
  4981  0FD9  2FFC               	goto	l1216
  4982                           	line	697
  4983                           ;Main Card V10.0.c: 697: case 0x00:
  4984                           	
  4985  0FDA                     l1220:	
  4986                           	line	698
  4987                           	
  4988  0FDA                     l4454:	
  4989                           ;Main Card V10.0.c: 698: RegisterSet(0, (mcparam0_read & 0x1F) | 0x00);
  4990  0FDA  1283               	bcf	status, 5	;RP0=0, select bank0
  4991  0FDB  1303               	bcf	status, 6	;RP1=0, select bank0
  4992  0FDC  082D               	movf	(SetRFMode@mcparam0_read),w
  4993  0FDD  391F               	andlw	01Fh
  4994  0FDE  00AB               	movwf	(??_SetRFMode+0)+0
  4995  0FDF  082B               	movf	(??_SetRFMode+0)+0,w
  4996  0FE0  00A3               	movwf	(?_RegisterSet)
  4997  0FE1  3000               	movlw	(0)
  4998  0FE2  120A  158A  247C   	fcall	_RegisterSet
              120A  158A         
  4999                           	line	700
  5000                           ;Main Card V10.0.c: 700: break;
  5001  0FE7  2FFC               	goto	l1216
  5002                           	line	701
  5003                           	
  5004  0FE8                     l4456:	
  5005                           ;Main Card V10.0.c: 701: }
  5006  0FE8  2FFC               	goto	l1216
  5007                           	line	680
  5008                           	
  5009  0FE9                     l1214:	
  5010                           	
  5011  0FE9                     l4458:	
  5012  0FE9  1283               	bcf	status, 5	;RP0=0, select bank0
  5013  0FEA  1303               	bcf	status, 6	;RP1=0, select bank0
  5014  0FEB  082C               	movf	(SetRFMode@mode),w
  5015                           	; Switch size 1, requested type "space"
  5016                           ; Number of cases is 5, Range of values is 0 to 128
  5017                           ; switch strategies available:
  5018                           ; Name         Instructions Cycles
  5019                           ; simple_byte           16     9 (average)
  5020                           ; jumptable            260     6 (fixed)
  5021                           ; rangetable           133     6 (fixed)
  5022                           ; spacedrange          264     9 (fixed)
  5023                           ; locatedrange         129     3 (fixed)
  5024                           ;	Chosen strategy is simple_byte
  5025                           
  5026                           	opt asmopt_off
  5027  0FEC  3A00               	xorlw	0^0	; case 0
  5028  0FED  1903               	skipnz
  5029  0FEE  2FDA               	goto	l4454
  5030  0FEF  3A20               	xorlw	32^0	; case 32
  5031  0FF0  1903               	skipnz
  5032  0FF1  2FCB               	goto	l4452
  5033  0FF2  3A60               	xorlw	64^32	; case 64
  5034  0FF3  1903               	skipnz
  5035  0FF4  2FBC               	goto	l4450
  5036  0FF5  3A20               	xorlw	96^64	; case 96
  5037  0FF6  1903               	skipnz
  5038  0FF7  2FAD               	goto	l4448
  5039  0FF8  3AE0               	xorlw	128^96	; case 128
  5040  0FF9  1903               	skipnz
  5041  0FFA  2FA0               	goto	l4446
  5042  0FFB  2FFC               	goto	l1216
  5043                           	opt asmopt_on
  5044                           
  5045                           	line	701
  5046                           	
  5047  0FFC                     l1216:	
  5048                           	line	702
  5049                           ;Main Card V10.0.c: 702: PORTAbits.RA4 = 1;
  5050  0FFC  1283               	bcf	status, 5	;RP0=0, select bank0
  5051  0FFD  1303               	bcf	status, 6	;RP1=0, select bank0
  5052  0FFE  1605               	bsf	(5),4	;volatile
  5053                           	line	703
  5054                           	
  5055  0FFF                     l1221:	
  5056  0FFF  0008               	return
  5057                           	opt stack 0
  5058                           GLOBAL	__end_of_SetRFMode
  5059  1000                     	__end_of_SetRFMode:
  5060 ;; =============== function _SetRFMode ends ============
  5061                           
  5062                           	signat	_SetRFMode,4216
  5063                           	global	_Blink
  5064                           psect	text826,local,class=CODE,delta=2
  5065                           global __ptext826
  5066  0D99                     __ptext826:
  5067                           
  5068 ;; *************** function _Blink *****************
  5069 ;; Defined at:
  5070 ;;		line 705 in file "C:\Users\Seba\Documents\Projekt\Bustel\Bustel_Project\Bustel Card v10.0 code v1.7.1\Main Card V10.
       0.c"
  5071 ;; Parameters:    Size  Location     Type
  5072 ;;  n               2    6[BANK0 ] int 
  5073 ;; Auto vars:     Size  Location     Type
  5074 ;;  i               2    9[BANK0 ] int 
  5075 ;; Return value:  Size  Location     Type
  5076 ;;		None               void
  5077 ;; Registers used:
  5078 ;;		wreg, status,2, status,0, pclath, cstack
  5079 ;; Tracked objects:
  5080 ;;		On entry : 0/0
  5081 ;;		On exit  : 0/0
  5082 ;;		Unchanged: 0/0
  5083 ;; Data sizes:     COMMON   BANK0   BANK1   BANK3   BANK2
  5084 ;;      Params:         0       2       0       0       0
  5085 ;;      Locals:         0       2       0       0       0
  5086 ;;      Temps:          0       1       0       0       0
  5087 ;;      Totals:         0       5       0       0       0
  5088 ;;Total ram usage:        5 bytes
  5089 ;; Hardware stack levels used:    1
  5090 ;; Hardware stack levels required when called:    3
  5091 ;; This function calls:
  5092 ;;		_DelayDs
  5093 ;; This function is called by:
  5094 ;;		_TransiverInit
  5095 ;; This function uses a non-reentrant model
  5096 ;;
  5097                           psect	text826
  5098                           	file	"C:\Users\Seba\Documents\Projekt\Bustel\Bustel_Project\Bustel Card v10.0 code v1.7
                                 .1\Main Card V10.0.c"
  5099                           	line	705
  5100                           	global	__size_of_Blink
  5101  0038                     	__size_of_Blink	equ	__end_of_Blink-_Blink
  5102                           	
  5103  0D99                     _Blink:	
  5104                           	opt	stack 3
  5105                           ; Regs used in _Blink: [wreg+status,2+status,0+pclath+cstack]
  5106                           	line	706
  5107                           	
  5108  0D99                     l4432:	
  5109                           ;Main Card V10.0.c: 706: for(int i = 1;i<=n;i++)
  5110  0D99  3001               	movlw	low(01h)
  5111  0D9A  1283               	bcf	status, 5	;RP0=0, select bank0
  5112  0D9B  1303               	bcf	status, 6	;RP1=0, select bank0
  5113  0D9C  00A9               	movwf	(Blink@i)
  5114  0D9D  3000               	movlw	high(01h)
  5115  0D9E  00AA               	movwf	((Blink@i))+1
  5116  0D9F  2DC1               	goto	l4440
  5117                           	line	707
  5118                           	
  5119  0DA0                     l1225:	
  5120                           	line	708
  5121                           ;Main Card V10.0.c: 707: {
  5122                           ;Main Card V10.0.c: 708: PORTCbits.RC1 = 1;
  5123  0DA0  1283               	bcf	status, 5	;RP0=0, select bank0
  5124  0DA1  1303               	bcf	status, 6	;RP1=0, select bank0
  5125  0DA2  1487               	bsf	(7),1	;volatile
  5126                           	line	709
  5127                           	
  5128  0DA3                     l4434:	
  5129                           ;Main Card V10.0.c: 709: DelayDs(2);
  5130  0DA3  3002               	movlw	low(02h)
  5131  0DA4  00A0               	movwf	(?_DelayDs)
  5132  0DA5  3000               	movlw	high(02h)
  5133  0DA6  00A1               	movwf	((?_DelayDs))+1
  5134  0DA7  120A  158A  24DE   	fcall	_DelayDs
              120A  158A         
  5135                           	line	710
  5136                           	
  5137  0DAC                     l4436:	
  5138                           ;Main Card V10.0.c: 710: PORTCbits.RC1 = 0;
  5139  0DAC  1283               	bcf	status, 5	;RP0=0, select bank0
  5140  0DAD  1303               	bcf	status, 6	;RP1=0, select bank0
  5141  0DAE  1087               	bcf	(7),1	;volatile
  5142                           	line	711
  5143                           ;Main Card V10.0.c: 711: DelayDs(6);
  5144  0DAF  3006               	movlw	low(06h)
  5145  0DB0  00A0               	movwf	(?_DelayDs)
  5146  0DB1  3000               	movlw	high(06h)
  5147  0DB2  00A1               	movwf	((?_DelayDs))+1
  5148  0DB3  120A  158A  24DE   	fcall	_DelayDs
              120A  158A         
  5149                           	line	706
  5150                           	
  5151  0DB8                     l4438:	
  5152  0DB8  3001               	movlw	low(01h)
  5153  0DB9  1283               	bcf	status, 5	;RP0=0, select bank0
  5154  0DBA  1303               	bcf	status, 6	;RP1=0, select bank0
  5155  0DBB  07A9               	addwf	(Blink@i),f
  5156  0DBC  1803               	skipnc
  5157  0DBD  0AAA               	incf	(Blink@i+1),f
  5158  0DBE  3000               	movlw	high(01h)
  5159  0DBF  07AA               	addwf	(Blink@i+1),f
  5160  0DC0  2DC1               	goto	l4440
  5161                           	
  5162  0DC1                     l1224:	
  5163                           	
  5164  0DC1                     l4440:	
  5165  0DC1  0827               	movf	(Blink@n+1),w
  5166  0DC2  3A80               	xorlw	80h
  5167  0DC3  00A8               	movwf	(??_Blink+0)+0
  5168  0DC4  082A               	movf	(Blink@i+1),w
  5169  0DC5  3A80               	xorlw	80h
  5170  0DC6  0228               	subwf	(??_Blink+0)+0,w
  5171  0DC7  1D03               	skipz
  5172  0DC8  2DCB               	goto	u3435
  5173  0DC9  0829               	movf	(Blink@i),w
  5174  0DCA  0226               	subwf	(Blink@n),w
  5175  0DCB                     u3435:
  5176                           
  5177  0DCB  1803               	skipnc
  5178  0DCC  2DCE               	goto	u3431
  5179  0DCD  2DCF               	goto	u3430
  5180  0DCE                     u3431:
  5181  0DCE  2DA0               	goto	l1225
  5182  0DCF                     u3430:
  5183  0DCF  2DD0               	goto	l1227
  5184                           	
  5185  0DD0                     l1226:	
  5186                           	line	714
  5187                           	
  5188  0DD0                     l1227:	
  5189  0DD0  0008               	return
  5190                           	opt stack 0
  5191                           GLOBAL	__end_of_Blink
  5192  0DD1                     	__end_of_Blink:
  5193 ;; =============== function _Blink ends ============
  5194                           
  5195                           	signat	_Blink,4216
  5196                           	global	_AnalogValue
  5197                           psect	text827,local,class=CODE,delta=2
  5198                           global __ptext827
  5199  0D06                     __ptext827:
  5200                           
  5201 ;; *************** function _AnalogValue *****************
  5202 ;; Defined at:
  5203 ;;		line 914 in file "C:\Users\Seba\Documents\Projekt\Bustel\Bustel_Project\Bustel Card v10.0 code v1.7.1\Main Card V10.
       0.c"
  5204 ;; Parameters:    Size  Location     Type
  5205 ;;  channel         1    wreg     unsigned char 
  5206 ;; Auto vars:     Size  Location     Type
  5207 ;;  channel         1    7[BANK0 ] unsigned char 
  5208 ;; Return value:  Size  Location     Type
  5209 ;;                  1    wreg      unsigned char 
  5210 ;; Registers used:
  5211 ;;		wreg, status,2, status,0, pclath, cstack
  5212 ;; Tracked objects:
  5213 ;;		On entry : 0/0
  5214 ;;		On exit  : 0/0
  5215 ;;		Unchanged: 0/0
  5216 ;; Data sizes:     COMMON   BANK0   BANK1   BANK3   BANK2
  5217 ;;      Params:         0       0       0       0       0
  5218 ;;      Locals:         0       1       0       0       0
  5219 ;;      Temps:          0       1       0       0       0
  5220 ;;      Totals:         0       2       0       0       0
  5221 ;;Total ram usage:        2 bytes
  5222 ;; Hardware stack levels used:    1
  5223 ;; Hardware stack levels required when called:    3
  5224 ;; This function calls:
  5225 ;;		_DelayDs
  5226 ;; This function is called by:
  5227 ;;		_TransmittedDataHandler
  5228 ;;		_DarknessCheck
  5229 ;; This function uses a non-reentrant model
  5230 ;;
  5231                           psect	text827
  5232                           	file	"C:\Users\Seba\Documents\Projekt\Bustel\Bustel_Project\Bustel Card v10.0 code v1.7
                                 .1\Main Card V10.0.c"
  5233                           	line	914
  5234                           	global	__size_of_AnalogValue
  5235  002D                     	__size_of_AnalogValue	equ	__end_of_AnalogValue-_AnalogValue
  5236                           	
  5237  0D06                     _AnalogValue:	
  5238                           	opt	stack 1
  5239                           ; Regs used in _AnalogValue: [wreg+status,2+status,0+pclath+cstack]
  5240                           ;AnalogValue@channel stored from wreg
  5241  0D06  1283               	bcf	status, 5	;RP0=0, select bank0
  5242  0D07  1303               	bcf	status, 6	;RP1=0, select bank0
  5243  0D08  00A7               	movwf	(AnalogValue@channel)
  5244                           	line	915
  5245                           	
  5246  0D09                     l4418:	
  5247                           ;Main Card V10.0.c: 915: ADCON0bits.CHS = channel;
  5248  0D09  0827               	movf	(AnalogValue@channel),w
  5249  0D0A  00A6               	movwf	(??_AnalogValue+0)+0
  5250  0D0B  0DA6               	rlf	(??_AnalogValue+0)+0,f
  5251  0D0C  0DA6               	rlf	(??_AnalogValue+0)+0,f
  5252  0D0D  081F               	movf	(31),w	;volatile
  5253  0D0E  0626               	xorwf	(??_AnalogValue+0)+0,w
  5254  0D0F  39C3               	andlw	not (((1<<4)-1)<<2)
  5255  0D10  0626               	xorwf	(??_AnalogValue+0)+0,w
  5256  0D11  009F               	movwf	(31)	;volatile
  5257                           	line	916
  5258                           	
  5259  0D12                     l4420:	
  5260                           ;Main Card V10.0.c: 916: ADCON0bits.ADON = 1;
  5261  0D12  141F               	bsf	(31),0	;volatile
  5262                           	line	917
  5263                           	
  5264  0D13                     l4422:	
  5265                           ;Main Card V10.0.c: 917: DelayDs(1);
  5266  0D13  3001               	movlw	low(01h)
  5267  0D14  00A0               	movwf	(?_DelayDs)
  5268  0D15  3000               	movlw	high(01h)
  5269  0D16  00A1               	movwf	((?_DelayDs))+1
  5270  0D17  120A  158A  24DE   	fcall	_DelayDs
              120A  158A         
  5271                           	line	918
  5272                           	
  5273  0D1C                     l4424:	
  5274                           ;Main Card V10.0.c: 918: ADCON0bits.GO = 1;
  5275  0D1C  1283               	bcf	status, 5	;RP0=0, select bank0
  5276  0D1D  1303               	bcf	status, 6	;RP1=0, select bank0
  5277  0D1E  149F               	bsf	(31),1	;volatile
  5278                           	line	919
  5279                           	
  5280  0D1F                     l4426:	
  5281                           ;Main Card V10.0.c: 919: DelayDs(1);
  5282  0D1F  3001               	movlw	low(01h)
  5283  0D20  00A0               	movwf	(?_DelayDs)
  5284  0D21  3000               	movlw	high(01h)
  5285  0D22  00A1               	movwf	((?_DelayDs))+1
  5286  0D23  120A  158A  24DE   	fcall	_DelayDs
              120A  158A         
  5287                           	line	920
  5288                           ;Main Card V10.0.c: 920: while(ADCON0bits.GO);
  5289  0D28  2D29               	goto	l1256
  5290                           	
  5291  0D29                     l1257:	
  5292                           	
  5293  0D29                     l1256:	
  5294  0D29  1283               	bcf	status, 5	;RP0=0, select bank0
  5295  0D2A  1303               	bcf	status, 6	;RP1=0, select bank0
  5296  0D2B  189F               	btfsc	(31),1	;volatile
  5297  0D2C  2D2E               	goto	u3421
  5298  0D2D  2D2F               	goto	u3420
  5299  0D2E                     u3421:
  5300  0D2E  2D29               	goto	l1256
  5301  0D2F                     u3420:
  5302                           	
  5303  0D2F                     l1258:	
  5304                           	line	921
  5305                           ;Main Card V10.0.c: 921: ADCON0bits.ADON = 0;
  5306  0D2F  101F               	bcf	(31),0	;volatile
  5307                           	line	922
  5308                           	
  5309  0D30                     l4428:	
  5310                           ;Main Card V10.0.c: 922: return ADRESH;
  5311  0D30  081E               	movf	(30),w	;volatile
  5312  0D31  2D32               	goto	l1259
  5313                           	
  5314  0D32                     l4430:	
  5315                           	line	924
  5316                           	
  5317  0D32                     l1259:	
  5318  0D32  0008               	return
  5319                           	opt stack 0
  5320                           GLOBAL	__end_of_AnalogValue
  5321  0D33                     	__end_of_AnalogValue:
  5322 ;; =============== function _AnalogValue ends ============
  5323                           
  5324                           	signat	_AnalogValue,4217
  5325                           	global	_ReadFIFO
  5326                           psect	text828,local,class=CODE,delta=2
  5327                           global __ptext828
  5328  0C10                     __ptext828:
  5329                           
  5330 ;; *************** function _ReadFIFO *****************
  5331 ;; Defined at:
  5332 ;;		line 792 in file "C:\Users\Seba\Documents\Projekt\Bustel\Bustel_Project\Bustel Card v10.0 code v1.7.1\Main Card V10.
       0.c"
  5333 ;; Parameters:    Size  Location     Type
  5334 ;;		None
  5335 ;; Auto vars:     Size  Location     Type
  5336 ;;  value           1    4[BANK0 ] unsigned char 
  5337 ;; Return value:  Size  Location     Type
  5338 ;;                  1    wreg      unsigned char 
  5339 ;; Registers used:
  5340 ;;		wreg, status,2, status,0, pclath, cstack
  5341 ;; Tracked objects:
  5342 ;;		On entry : 0/0
  5343 ;;		On exit  : 0/0
  5344 ;;		Unchanged: 0/0
  5345 ;; Data sizes:     COMMON   BANK0   BANK1   BANK3   BANK2
  5346 ;;      Params:         0       0       0       0       0
  5347 ;;      Locals:         0       1       0       0       0
  5348 ;;      Temps:          0       1       0       0       0
  5349 ;;      Totals:         0       2       0       0       0
  5350 ;;Total ram usage:        2 bytes
  5351 ;; Hardware stack levels used:    1
  5352 ;; Hardware stack levels required when called:    4
  5353 ;; This function calls:
  5354 ;;		_ReadSPI
  5355 ;; This function is called by:
  5356 ;;		_TransiverReadFIFO
  5357 ;; This function uses a non-reentrant model
  5358 ;;
  5359                           psect	text828
  5360                           	file	"C:\Users\Seba\Documents\Projekt\Bustel\Bustel_Project\Bustel Card v10.0 code v1.7
                                 .1\Main Card V10.0.c"
  5361                           	line	792
  5362                           	global	__size_of_ReadFIFO
  5363  0011                     	__size_of_ReadFIFO	equ	__end_of_ReadFIFO-_ReadFIFO
  5364                           	
  5365  0C10                     _ReadFIFO:	
  5366                           	opt	stack 2
  5367                           ; Regs used in _ReadFIFO: [wreg+status,2+status,0+pclath+cstack]
  5368                           	line	794
  5369                           	
  5370  0C10                     l4408:	
  5371                           ;Main Card V10.0.c: 793: BYTE value;
  5372                           ;Main Card V10.0.c: 794: PORTAbits.RA5 = 0;
  5373  0C10  1283               	bcf	status, 5	;RP0=0, select bank0
  5374  0C11  1303               	bcf	status, 6	;RP1=0, select bank0
  5375  0C12  1285               	bcf	(5),5	;volatile
  5376                           	line	795
  5377                           	
  5378  0C13                     l4410:	
  5379                           ;Main Card V10.0.c: 795: value = ReadSPI();
  5380  0C13  120A  118A  27F4   	fcall	_ReadSPI
              120A  158A         
  5381  0C18  1283               	bcf	status, 5	;RP0=0, select bank0
  5382  0C19  1303               	bcf	status, 6	;RP1=0, select bank0
  5383  0C1A  00A3               	movwf	(??_ReadFIFO+0)+0
  5384  0C1B  0823               	movf	(??_ReadFIFO+0)+0,w
  5385  0C1C  00A4               	movwf	(ReadFIFO@value)
  5386                           	line	796
  5387                           	
  5388  0C1D                     l4412:	
  5389                           ;Main Card V10.0.c: 796: PORTAbits.RA5 = 1;
  5390  0C1D  1685               	bsf	(5),5	;volatile
  5391                           	line	797
  5392                           	
  5393  0C1E                     l4414:	
  5394                           ;Main Card V10.0.c: 797: return value;
  5395  0C1E  0824               	movf	(ReadFIFO@value),w
  5396  0C1F  2C20               	goto	l1236
  5397                           	
  5398  0C20                     l4416:	
  5399                           	line	799
  5400                           	
  5401  0C20                     l1236:	
  5402  0C20  0008               	return
  5403                           	opt stack 0
  5404                           GLOBAL	__end_of_ReadFIFO
  5405  0C21                     	__end_of_ReadFIFO:
  5406 ;; =============== function _ReadFIFO ends ============
  5407                           
  5408                           	signat	_ReadFIFO,89
  5409                           	global	_RegisterRead
  5410                           psect	text829,local,class=CODE,delta=2
  5411                           global __ptext829
  5412  0C98                     __ptext829:
  5413                           
  5414 ;; *************** function _RegisterRead *****************
  5415 ;; Defined at:
  5416 ;;		line 736 in file "C:\Users\Seba\Documents\Projekt\Bustel\Bustel_Project\Bustel Card v10.0 code v1.7.1\Main Card V10.
       0.c"
  5417 ;; Parameters:    Size  Location     Type
  5418 ;;  adress          1    wreg     unsigned char 
  5419 ;; Auto vars:     Size  Location     Type
  5420 ;;  adress          1   10[BANK0 ] unsigned char 
  5421 ;;  value           1    9[BANK0 ] unsigned char 
  5422 ;; Return value:  Size  Location     Type
  5423 ;;                  1    wreg      unsigned char 
  5424 ;; Registers used:
  5425 ;;		wreg, status,2, status,0, pclath, cstack
  5426 ;; Tracked objects:
  5427 ;;		On entry : 0/0
  5428 ;;		On exit  : 0/0
  5429 ;;		Unchanged: 0/0
  5430 ;; Data sizes:     COMMON   BANK0   BANK1   BANK3   BANK2
  5431 ;;      Params:         0       0       0       0       0
  5432 ;;      Locals:         0       2       0       0       0
  5433 ;;      Temps:          0       2       0       0       0
  5434 ;;      Totals:         0       4       0       0       0
  5435 ;;Total ram usage:        4 bytes
  5436 ;; Hardware stack levels used:    1
  5437 ;; Hardware stack levels required when called:    4
  5438 ;; This function calls:
  5439 ;;		_WriteSPI
  5440 ;;		_ReadSPI
  5441 ;; This function is called by:
  5442 ;;		_TransiverToReceive
  5443 ;;		_TransmittString
  5444 ;;		_TransiverInit
  5445 ;;		_FindChannel
  5446 ;;		_SetRFMode
  5447 ;; This function uses a non-reentrant model
  5448 ;;
  5449                           psect	text829
  5450                           	file	"C:\Users\Seba\Documents\Projekt\Bustel\Bustel_Project\Bustel Card v10.0 code v1.7
                                 .1\Main Card V10.0.c"
  5451                           	line	736
  5452                           	global	__size_of_RegisterRead
  5453  001F                     	__size_of_RegisterRead	equ	__end_of_RegisterRead-_RegisterRead
  5454                           	
  5455  0C98                     _RegisterRead:	
  5456 ;; hardware stack exceeded
  5457                           	opt	stack 0
  5458                           ; Regs used in _RegisterRead: [wreg+status,2+status,0+pclath+cstack]
  5459                           ;RegisterRead@adress stored from wreg
  5460                           	line	738
  5461  0C98  1283               	bcf	status, 5	;RP0=0, select bank0
  5462  0C99  1303               	bcf	status, 6	;RP1=0, select bank0
  5463  0C9A  00AA               	movwf	(RegisterRead@adress)
  5464                           	
  5465  0C9B                     l4394:	
  5466                           ;Main Card V10.0.c: 737: BYTE value;
  5467                           ;Main Card V10.0.c: 738: PORTAbits.RA4 = 0;
  5468  0C9B  1205               	bcf	(5),4	;volatile
  5469                           	line	739
  5470                           	
  5471  0C9C                     l4396:	
  5472                           ;Main Card V10.0.c: 739: adress = ((adress<<1)|0x40);
  5473  0C9C  082A               	movf	(RegisterRead@adress),w
  5474  0C9D  00A7               	movwf	(??_RegisterRead+0)+0
  5475  0C9E  0727               	addwf	(??_RegisterRead+0)+0,w
  5476  0C9F  3840               	iorlw	040h
  5477  0CA0  00A8               	movwf	(??_RegisterRead+1)+0
  5478  0CA1  0828               	movf	(??_RegisterRead+1)+0,w
  5479  0CA2  00AA               	movwf	(RegisterRead@adress)
  5480                           	line	740
  5481                           	
  5482  0CA3                     l4398:	
  5483                           ;Main Card V10.0.c: 740: WriteSPI(adress);
  5484  0CA3  082A               	movf	(RegisterRead@adress),w
  5485  0CA4  120A  158A  23FF   	fcall	_WriteSPI
              120A  158A         
  5486                           	line	741
  5487                           	
  5488  0CA9                     l4400:	
  5489                           ;Main Card V10.0.c: 741: value = ReadSPI();
  5490  0CA9  120A  118A  27F4   	fcall	_ReadSPI
              120A  158A         
  5491  0CAE  1283               	bcf	status, 5	;RP0=0, select bank0
  5492  0CAF  1303               	bcf	status, 6	;RP1=0, select bank0
  5493  0CB0  00A7               	movwf	(??_RegisterRead+0)+0
  5494  0CB1  0827               	movf	(??_RegisterRead+0)+0,w
  5495  0CB2  00A9               	movwf	(RegisterRead@value)
  5496                           	line	742
  5497                           	
  5498  0CB3                     l4402:	
  5499                           ;Main Card V10.0.c: 742: PORTAbits.RA4 = 1;
  5500  0CB3  1605               	bsf	(5),4	;volatile
  5501                           	line	743
  5502                           	
  5503  0CB4                     l4404:	
  5504                           ;Main Card V10.0.c: 743: return value;
  5505  0CB4  0829               	movf	(RegisterRead@value),w
  5506  0CB5  2CB6               	goto	l1230
  5507                           	
  5508  0CB6                     l4406:	
  5509                           	line	744
  5510                           	
  5511  0CB6                     l1230:	
  5512  0CB6  0008               	return
  5513                           	opt stack 0
  5514                           GLOBAL	__end_of_RegisterRead
  5515  0CB7                     	__end_of_RegisterRead:
  5516 ;; =============== function _RegisterRead ends ============
  5517                           
  5518                           	signat	_RegisterRead,4217
  5519                           	global	_ReadSPI
  5520                           psect	text830,local,class=CODE,delta=2
  5521                           global __ptext830
  5522  07F4                     __ptext830:
  5523                           
  5524 ;; *************** function _ReadSPI *****************
  5525 ;; Defined at:
  5526 ;;		line 587 in file "C:\Users\Seba\Documents\Projekt\Bustel\Bustel_Project\Bustel Card v10.0 code v1.7.1\Main Card V10.
       0.c"
  5527 ;; Parameters:    Size  Location     Type
  5528 ;;		None
  5529 ;; Auto vars:     Size  Location     Type
  5530 ;;		None
  5531 ;; Return value:  Size  Location     Type
  5532 ;;                  1    wreg      unsigned char 
  5533 ;; Registers used:
  5534 ;;		wreg, status,2, status,0, pclath, cstack
  5535 ;; Tracked objects:
  5536 ;;		On entry : 0/0
  5537 ;;		On exit  : 0/0
  5538 ;;		Unchanged: 0/0
  5539 ;; Data sizes:     COMMON   BANK0   BANK1   BANK3   BANK2
  5540 ;;      Params:         0       0       0       0       0
  5541 ;;      Locals:         0       0       0       0       0
  5542 ;;      Temps:          0       0       0       0       0
  5543 ;;      Totals:         0       0       0       0       0
  5544 ;;Total ram usage:        0 bytes
  5545 ;; Hardware stack levels used:    1
  5546 ;; Hardware stack levels required when called:    3
  5547 ;; This function calls:
  5548 ;;		_WriteSPI
  5549 ;; This function is called by:
  5550 ;;		_RegisterRead
  5551 ;;		_ReadFIFO
  5552 ;; This function uses a non-reentrant model
  5553 ;;
  5554                           psect	text830
  5555                           	file	"C:\Users\Seba\Documents\Projekt\Bustel\Bustel_Project\Bustel Card v10.0 code v1.7
                                 .1\Main Card V10.0.c"
  5556                           	line	587
  5557                           	global	__size_of_ReadSPI
  5558  000B                     	__size_of_ReadSPI	equ	__end_of_ReadSPI-_ReadSPI
  5559                           	
  5560  07F4                     _ReadSPI:	
  5561 ;; hardware stack exceeded
  5562                           	opt	stack 0
  5563                           ; Regs used in _ReadSPI: [wreg+status,2+status,0+pclath+cstack]
  5564                           	line	588
  5565                           	
  5566  07F4                     l4388:	
  5567                           ;Main Card V10.0.c: 588: WriteSPI(0x00);
  5568  07F4  3000               	movlw	(0)
  5569  07F5  120A  158A  23FF   	fcall	_WriteSPI
              120A  118A         
  5570                           	line	589
  5571                           	
  5572  07FA                     l4390:	
  5573                           ;Main Card V10.0.c: 589: return SSPBUF;
  5574  07FA  1283               	bcf	status, 5	;RP0=0, select bank0
  5575  07FB  1303               	bcf	status, 6	;RP1=0, select bank0
  5576  07FC  0813               	movf	(19),w	;volatile
  5577  07FD  2FFE               	goto	l1198
  5578                           	
  5579  07FE                     l4392:	
  5580                           	line	590
  5581                           	
  5582  07FE                     l1198:	
  5583  07FE  0008               	return
  5584                           	opt stack 0
  5585                           GLOBAL	__end_of_ReadSPI
  5586  07FF                     	__end_of_ReadSPI:
  5587 ;; =============== function _ReadSPI ends ============
  5588                           
  5589                           	signat	_ReadSPI,89
  5590                           	global	_WriteFIFO
  5591                           psect	text831,local,class=CODE,delta=2
  5592                           global __ptext831
  5593  0BE1                     __ptext831:
  5594                           
  5595 ;; *************** function _WriteFIFO *****************
  5596 ;; Defined at:
  5597 ;;		line 819 in file "C:\Users\Seba\Documents\Projekt\Bustel\Bustel_Project\Bustel Card v10.0 code v1.7.1\Main Card V10.
       0.c"
  5598 ;; Parameters:    Size  Location     Type
  5599 ;;  Data            1    wreg     unsigned char 
  5600 ;; Auto vars:     Size  Location     Type
  5601 ;;  Data            1    3[BANK0 ] unsigned char 
  5602 ;; Return value:  Size  Location     Type
  5603 ;;		None               void
  5604 ;; Registers used:
  5605 ;;		wreg, status,2, status,0, pclath, cstack
  5606 ;; Tracked objects:
  5607 ;;		On entry : 0/0
  5608 ;;		On exit  : 0/0
  5609 ;;		Unchanged: 0/0
  5610 ;; Data sizes:     COMMON   BANK0   BANK1   BANK3   BANK2
  5611 ;;      Params:         0       0       0       0       0
  5612 ;;      Locals:         0       1       0       0       0
  5613 ;;      Temps:          0       0       0       0       0
  5614 ;;      Totals:         0       1       0       0       0
  5615 ;;Total ram usage:        1 bytes
  5616 ;; Hardware stack levels used:    1
  5617 ;; Hardware stack levels required when called:    3
  5618 ;; This function calls:
  5619 ;;		_WriteSPI
  5620 ;; This function is called by:
  5621 ;;		_TransmittString
  5622 ;; This function uses a non-reentrant model
  5623 ;;
  5624                           psect	text831
  5625                           	file	"C:\Users\Seba\Documents\Projekt\Bustel\Bustel_Project\Bustel Card v10.0 code v1.7
                                 .1\Main Card V10.0.c"
  5626                           	line	819
  5627                           	global	__size_of_WriteFIFO
  5628  000E                     	__size_of_WriteFIFO	equ	__end_of_WriteFIFO-_WriteFIFO
  5629                           	
  5630  0BE1                     _WriteFIFO:	
  5631                           	opt	stack 1
  5632                           ; Regs used in _WriteFIFO: [wreg+status,2+status,0+pclath+cstack]
  5633                           ;WriteFIFO@Data stored from wreg
  5634  0BE1  1283               	bcf	status, 5	;RP0=0, select bank0
  5635  0BE2  1303               	bcf	status, 6	;RP1=0, select bank0
  5636  0BE3  00A3               	movwf	(WriteFIFO@Data)
  5637                           	line	820
  5638                           	
  5639  0BE4                     l4382:	
  5640                           ;Main Card V10.0.c: 820: PORTAbits.RA5 = 0;
  5641  0BE4  1285               	bcf	(5),5	;volatile
  5642                           	line	821
  5643                           	
  5644  0BE5                     l4384:	
  5645                           ;Main Card V10.0.c: 821: WriteSPI(Data);
  5646  0BE5  0823               	movf	(WriteFIFO@Data),w
  5647  0BE6  120A  158A  23FF   	fcall	_WriteSPI
              120A  158A         
  5648                           	line	822
  5649                           	
  5650  0BEB                     l4386:	
  5651                           ;Main Card V10.0.c: 822: PORTAbits.RA5 = 1;
  5652  0BEB  1283               	bcf	status, 5	;RP0=0, select bank0
  5653  0BEC  1303               	bcf	status, 6	;RP1=0, select bank0
  5654  0BED  1685               	bsf	(5),5	;volatile
  5655                           	line	823
  5656                           	
  5657  0BEE                     l1239:	
  5658  0BEE  0008               	return
  5659                           	opt stack 0
  5660                           GLOBAL	__end_of_WriteFIFO
  5661  0BEF                     	__end_of_WriteFIFO:
  5662 ;; =============== function _WriteFIFO ends ============
  5663                           
  5664                           	signat	_WriteFIFO,4216
  5665                           	global	_DelayDs
  5666                           psect	text832,local,class=CODE,delta=2
  5667                           global __ptext832
  5668  0CDE                     __ptext832:
  5669                           
  5670 ;; *************** function _DelayDs *****************
  5671 ;; Defined at:
  5672 ;;		line 565 in file "C:\Users\Seba\Documents\Projekt\Bustel\Bustel_Project\Bustel Card v10.0 code v1.7.1\Main Card V10.
       0.c"
  5673 ;; Parameters:    Size  Location     Type
  5674 ;;  cnt             2    0[BANK0 ] int 
  5675 ;; Auto vars:     Size  Location     Type
  5676 ;;  i               2    4[BANK0 ] int 
  5677 ;; Return value:  Size  Location     Type
  5678 ;;		None               void
  5679 ;; Registers used:
  5680 ;;		wreg, status,2
  5681 ;; Tracked objects:
  5682 ;;		On entry : 0/0
  5683 ;;		On exit  : 0/0
  5684 ;;		Unchanged: 0/0
  5685 ;; Data sizes:     COMMON   BANK0   BANK1   BANK3   BANK2
  5686 ;;      Params:         0       2       0       0       0
  5687 ;;      Locals:         0       2       0       0       0
  5688 ;;      Temps:          0       2       0       0       0
  5689 ;;      Totals:         0       6       0       0       0
  5690 ;;Total ram usage:        6 bytes
  5691 ;; Hardware stack levels used:    1
  5692 ;; Hardware stack levels required when called:    2
  5693 ;; This function calls:
  5694 ;;		Nothing
  5695 ;; This function is called by:
  5696 ;;		_TransmittedDataHandler
  5697 ;;		_Blink
  5698 ;;		_AnalogValue
  5699 ;; This function uses a non-reentrant model
  5700 ;;
  5701                           psect	text832
  5702                           	file	"C:\Users\Seba\Documents\Projekt\Bustel\Bustel_Project\Bustel Card v10.0 code v1.7
                                 .1\Main Card V10.0.c"
  5703                           	line	565
  5704                           	global	__size_of_DelayDs
  5705  0028                     	__size_of_DelayDs	equ	__end_of_DelayDs-_DelayDs
  5706                           	
  5707  0CDE                     _DelayDs:	
  5708                           	opt	stack 1
  5709                           ; Regs used in _DelayDs: [wreg+status,2]
  5710                           	line	567
  5711                           	
  5712  0CDE                     l4378:	
  5713                           ;Main Card V10.0.c: 566: int i;
  5714                           ;Main Card V10.0.c: 567: for(i=0;i<cnt;i++){
  5715  0CDE  1283               	bcf	status, 5	;RP0=0, select bank0
  5716  0CDF  1303               	bcf	status, 6	;RP1=0, select bank0
  5717  0CE0  01A4               	clrf	(DelayDs@i)
  5718  0CE1  01A5               	clrf	(DelayDs@i+1)
  5719  0CE2  2CF6               	goto	l1186
  5720                           	
  5721  0CE3                     l1187:	
  5722                           	line	568
  5723                           	
  5724  0CE3                     l4380:	
  5725                           ;Main Card V10.0.c: 568: _delay((unsigned long)((100)*(4000000/4000.0)));
  5726                           	opt asmopt_off
  5727  0CE3  3082               movlw	130
  5728  0CE4  1283               	bcf	status, 5	;RP0=0, select bank0
  5729  0CE5  1303               	bcf	status, 6	;RP1=0, select bank0
  5730  0CE6  00A3               movwf	((??_DelayDs+0)+0+1),f
  5731  0CE7  30DD               	movlw	221
  5732  0CE8  00A2               movwf	((??_DelayDs+0)+0),f
  5733  0CE9                     u4127:
  5734  0CE9  0BA2               	decfsz	((??_DelayDs+0)+0),f
  5735  0CEA  2CE9               	goto	u4127
  5736  0CEB  0BA3               	decfsz	((??_DelayDs+0)+0+1),f
  5737  0CEC  2CE9               	goto	u4127
  5738  0CED  2CEE               	nop2
  5739                           opt asmopt_on
  5740                           
  5741                           	line	567
  5742  0CEE  3001               	movlw	low(01h)
  5743  0CEF  1283               	bcf	status, 5	;RP0=0, select bank0
  5744  0CF0  1303               	bcf	status, 6	;RP1=0, select bank0
  5745  0CF1  07A4               	addwf	(DelayDs@i),f
  5746  0CF2  1803               	skipnc
  5747  0CF3  0AA5               	incf	(DelayDs@i+1),f
  5748  0CF4  3000               	movlw	high(01h)
  5749  0CF5  07A5               	addwf	(DelayDs@i+1),f
  5750                           	
  5751  0CF6                     l1186:	
  5752  0CF6  0825               	movf	(DelayDs@i+1),w
  5753  0CF7  3A80               	xorlw	80h
  5754  0CF8  00A2               	movwf	(??_DelayDs+0)+0
  5755  0CF9  0821               	movf	(DelayDs@cnt+1),w
  5756  0CFA  3A80               	xorlw	80h
  5757  0CFB  0222               	subwf	(??_DelayDs+0)+0,w
  5758  0CFC  1D03               	skipz
  5759  0CFD  2D00               	goto	u3415
  5760  0CFE  0820               	movf	(DelayDs@cnt),w
  5761  0CFF  0224               	subwf	(DelayDs@i),w
  5762  0D00                     u3415:
  5763                           
  5764  0D00  1C03               	skipc
  5765  0D01  2D03               	goto	u3411
  5766  0D02  2D04               	goto	u3410
  5767  0D03                     u3411:
  5768  0D03  2CE3               	goto	l4380
  5769  0D04                     u3410:
  5770  0D04  2D05               	goto	l1189
  5771                           	
  5772  0D05                     l1188:	
  5773                           	line	570
  5774                           	
  5775  0D05                     l1189:	
  5776  0D05  0008               	return
  5777                           	opt stack 0
  5778                           GLOBAL	__end_of_DelayDs
  5779  0D06                     	__end_of_DelayDs:
  5780 ;; =============== function _DelayDs ends ============
  5781                           
  5782                           	signat	_DelayDs,4216
  5783                           	global	_strstr
  5784                           psect	text833,local,class=CODE,delta=2
  5785                           global __ptext833
  5786  0DD1                     __ptext833:
  5787                           
  5788 ;; *************** function _strstr *****************
  5789 ;; Defined at:
  5790 ;;		line 5 in file "C:\Program Files (x86)\HI-TECH Software\PICC\9.83\sources\strstr.c"
  5791 ;; Parameters:    Size  Location     Type
  5792 ;;  s1              1    wreg     PTR const unsigned char 
  5793 ;;		 -> NULL(0), TransmittedString(30), 
  5794 ;;  s2              1   16[BANK0 ] PTR const unsigned char 
  5795 ;;		 -> STR_16(5), STR_15(6), STR_14(6), STR_13(8), 
  5796 ;;		 -> STR_10(7), STR_7(9), STR_6(7), STR_5(8), 
  5797 ;;		 -> STR_4(7), STR_3(7), STR_2(8), STR_1(8), 
  5798 ;; Auto vars:     Size  Location     Type
  5799 ;;  s1              1   20[BANK0 ] PTR const unsigned char 
  5800 ;;		 -> NULL(0), TransmittedString(30), 
  5801 ;; Return value:  Size  Location     Type
  5802 ;;                  1    wreg      PTR unsigned char 
  5803 ;; Registers used:
  5804 ;;		wreg, fsr0l, fsr0h, status,2, status,0, pclath, cstack
  5805 ;; Tracked objects:
  5806 ;;		On entry : 0/0
  5807 ;;		On exit  : 0/0
  5808 ;;		Unchanged: 0/0
  5809 ;; Data sizes:     COMMON   BANK0   BANK1   BANK3   BANK2
  5810 ;;      Params:         0       1       0       0       0
  5811 ;;      Locals:         0       1       0       0       0
  5812 ;;      Temps:          0       3       0       0       0
  5813 ;;      Totals:         0       5       0       0       0
  5814 ;;Total ram usage:        5 bytes
  5815 ;; Hardware stack levels used:    1
  5816 ;; Hardware stack levels required when called:    3
  5817 ;; This function calls:
  5818 ;;		_strlen
  5819 ;;		_strncmp
  5820 ;;		_strchr
  5821 ;; This function is called by:
  5822 ;;		_TransmittedDataHandler
  5823 ;; This function uses a non-reentrant model
  5824 ;;
  5825                           psect	text833
  5826                           	file	"C:\Program Files (x86)\HI-TECH Software\PICC\9.83\sources\strstr.c"
  5827                           	line	5
  5828                           	global	__size_of_strstr
  5829  0052                     	__size_of_strstr	equ	__end_of_strstr-_strstr
  5830                           	
  5831  0DD1                     _strstr:	
  5832                           	opt	stack 2
  5833                           ; Regs used in _strstr: [wreg-fsr0h+status,2+status,0+pclath+cstack]
  5834                           ;strstr@s1 stored from wreg
  5835  0DD1  1283               	bcf	status, 5	;RP0=0, select bank0
  5836  0DD2  1303               	bcf	status, 6	;RP1=0, select bank0
  5837  0DD3  00B4               	movwf	(strstr@s1)
  5838                           	line	6
  5839                           	
  5840  0DD4                     l4360:	
  5841  0DD4  2E12               	goto	l4370
  5842                           	
  5843  0DD5                     l2205:	
  5844                           	line	7
  5845                           	
  5846  0DD5                     l4362:	
  5847  0DD5  0830               	movf	(strstr@s2),w
  5848  0DD6  00B1               	movwf	(??_strstr+0)+0
  5849  0DD7  0831               	movf	(??_strstr+0)+0,w
  5850  0DD8  00AA               	movwf	(?_strncmp)
  5851  0DD9  0830               	movf	(strstr@s2),w
  5852  0DDA  120A  158A  2561   	fcall	_strlen
              120A  158A         
  5853  0DDF  1283               	bcf	status, 5	;RP0=0, select bank0
  5854  0DE0  1303               	bcf	status, 6	;RP1=0, select bank0
  5855  0DE1  0821               	movf	(1+(?_strlen)),w
  5856  0DE2  01AC               	clrf	1+(?_strncmp)+01h
  5857  0DE3  07AC               	addwf	1+(?_strncmp)+01h
  5858  0DE4  0820               	movf	(0+(?_strlen)),w
  5859  0DE5  01AB               	clrf	0+(?_strncmp)+01h
  5860  0DE6  07AB               	addwf	0+(?_strncmp)+01h
  5861                           
  5862  0DE7  0834               	movf	(strstr@s1),w
  5863  0DE8  120A  118A  25AC   	fcall	_strncmp
              120A  158A         
  5864  0DED  1283               	bcf	status, 5	;RP0=0, select bank0
  5865  0DEE  1303               	bcf	status, 6	;RP1=0, select bank0
  5866  0DEF  082B               	movf	((1+(?_strncmp))),w
  5867  0DF0  042A               	iorwf	((0+(?_strncmp))),w
  5868  0DF1  1D03               	skipz
  5869  0DF2  2DF4               	goto	u3381
  5870  0DF3  2DF5               	goto	u3380
  5871  0DF4                     u3381:
  5872  0DF4  2DF8               	goto	l4368
  5873  0DF5                     u3380:
  5874                           	line	8
  5875                           	
  5876  0DF5                     l4364:	
  5877  0DF5  0834               	movf	(strstr@s1),w
  5878  0DF6  2E22               	goto	l2207
  5879                           	
  5880  0DF7                     l4366:	
  5881  0DF7  2E22               	goto	l2207
  5882                           	
  5883  0DF8                     l2206:	
  5884                           	line	9
  5885                           	
  5886  0DF8                     l4368:	
  5887  0DF8  0830               	movf	(strstr@s2),w
  5888  0DF9  0084               	movwf	fsr0
  5889  0DFA  120A  118A  260A   	fcall	stringdir
              120A  158A         
  5890  0DFF  00B1               	movwf	(??_strstr+0)+0
  5891  0E00  01B2               	clrf	(??_strstr+0)+0+1
  5892  0E01  0831               	movf	0+(??_strstr+0)+0,w
  5893  0E02  00A0               	movwf	(?_strchr)
  5894  0E03  0832               	movf	1+(??_strstr+0)+0,w
  5895  0E04  00A1               	movwf	(?_strchr+1)
  5896  0E05  0834               	movf	(strstr@s1),w
  5897  0E06  3E01               	addlw	01h
  5898  0E07  120A  158A  2460   	fcall	_strchr
              120A  158A         
  5899  0E0C  1283               	bcf	status, 5	;RP0=0, select bank0
  5900  0E0D  1303               	bcf	status, 6	;RP1=0, select bank0
  5901  0E0E  00B3               	movwf	(??_strstr+2)+0
  5902  0E0F  0833               	movf	(??_strstr+2)+0,w
  5903  0E10  00B4               	movwf	(strstr@s1)
  5904  0E11  2E12               	goto	l4370
  5905                           	line	10
  5906                           	
  5907  0E12                     l2204:	
  5908                           	line	6
  5909                           	
  5910  0E12                     l4370:	
  5911  0E12  0834               	movf	(strstr@s1),w
  5912  0E13  1D03               	skipz
  5913  0E14  2E16               	goto	u3390
  5914  0E15  2E20               	goto	l4374
  5915  0E16                     u3390:
  5916                           	
  5917  0E16                     l4372:	
  5918  0E16  0834               	movf	(strstr@s1),w
  5919  0E17  0084               	movwf	fsr0
  5920  0E18  1383               	bcf	status, 7	;select IRP bank0
  5921  0E19  0880               	movf	indf,f
  5922  0E1A  1D03               	skipz
  5923  0E1B  2E1D               	goto	u3401
  5924  0E1C  2E1E               	goto	u3400
  5925  0E1D                     u3401:
  5926  0E1D  2DD5               	goto	l4362
  5927  0E1E                     u3400:
  5928  0E1E  2E20               	goto	l4374
  5929                           	
  5930  0E1F                     l2209:	
  5931  0E1F  2E20               	goto	l4374
  5932                           	
  5933  0E20                     l2210:	
  5934                           	line	11
  5935                           	
  5936  0E20                     l4374:	
  5937  0E20  3000               	movlw	(0)
  5938  0E21  2E22               	goto	l2207
  5939                           	
  5940  0E22                     l4376:	
  5941                           	line	12
  5942                           	
  5943  0E22                     l2207:	
  5944  0E22  0008               	return
  5945                           	opt stack 0
  5946                           GLOBAL	__end_of_strstr
  5947  0E23                     	__end_of_strstr:
  5948 ;; =============== function _strstr ends ============
  5949                           
  5950                           	signat	_strstr,8313
  5951                           	global	_RegisterSet
  5952                           psect	text834,local,class=CODE,delta=2
  5953                           global __ptext834
  5954  0C7C                     __ptext834:
  5955                           
  5956 ;; *************** function _RegisterSet *****************
  5957 ;; Defined at:
  5958 ;;		line 766 in file "C:\Users\Seba\Documents\Projekt\Bustel\Bustel_Project\Bustel Card v10.0 code v1.7.1\Main Card V10.
       0.c"
  5959 ;; Parameters:    Size  Location     Type
  5960 ;;  adress          1    wreg     unsigned char 
  5961 ;;  value           1    3[BANK0 ] unsigned char 
  5962 ;; Auto vars:     Size  Location     Type
  5963 ;;  adress          1    6[BANK0 ] unsigned char 
  5964 ;; Return value:  Size  Location     Type
  5965 ;;		None               void
  5966 ;; Registers used:
  5967 ;;		wreg, status,2, status,0, pclath, cstack
  5968 ;; Tracked objects:
  5969 ;;		On entry : 0/0
  5970 ;;		On exit  : 0/0
  5971 ;;		Unchanged: 0/0
  5972 ;; Data sizes:     COMMON   BANK0   BANK1   BANK3   BANK2
  5973 ;;      Params:         0       1       0       0       0
  5974 ;;      Locals:         0       1       0       0       0
  5975 ;;      Temps:          0       2       0       0       0
  5976 ;;      Totals:         0       4       0       0       0
  5977 ;;Total ram usage:        4 bytes
  5978 ;; Hardware stack levels used:    1
  5979 ;; Hardware stack levels required when called:    3
  5980 ;; This function calls:
  5981 ;;		_WriteSPI
  5982 ;; This function is called by:
  5983 ;;		_TransiverToReceive
  5984 ;;		_TransmittString
  5985 ;;		_TransiverInit
  5986 ;;		_FindChannel
  5987 ;;		_SetRFMode
  5988 ;; This function uses a non-reentrant model
  5989 ;;
  5990                           psect	text834
  5991                           	file	"C:\Users\Seba\Documents\Projekt\Bustel\Bustel_Project\Bustel Card v10.0 code v1.7
                                 .1\Main Card V10.0.c"
  5992                           	line	766
  5993                           	global	__size_of_RegisterSet
  5994  001C                     	__size_of_RegisterSet	equ	__end_of_RegisterSet-_RegisterSet
  5995                           	
  5996  0C7C                     _RegisterSet:	
  5997 ;; hardware stack exceeded
  5998                           	opt	stack 0
  5999                           ; Regs used in _RegisterSet: [wreg+status,2+status,0+pclath+cstack]
  6000                           ;RegisterSet@adress stored from wreg
  6001  0C7C  1283               	bcf	status, 5	;RP0=0, select bank0
  6002  0C7D  1303               	bcf	status, 6	;RP1=0, select bank0
  6003  0C7E  00A6               	movwf	(RegisterSet@adress)
  6004                           	line	767
  6005                           	
  6006  0C7F                     l4350:	
  6007                           ;Main Card V10.0.c: 767: PORTAbits.RA4 = 0;
  6008  0C7F  1205               	bcf	(5),4	;volatile
  6009                           	line	768
  6010                           	
  6011  0C80                     l4352:	
  6012                           ;Main Card V10.0.c: 768: adress = (adress<<1);
  6013  0C80  0826               	movf	(RegisterSet@adress),w
  6014  0C81  00A4               	movwf	(??_RegisterSet+0)+0
  6015  0C82  0724               	addwf	(??_RegisterSet+0)+0,w
  6016  0C83  00A5               	movwf	(??_RegisterSet+1)+0
  6017  0C84  0825               	movf	(??_RegisterSet+1)+0,w
  6018  0C85  00A6               	movwf	(RegisterSet@adress)
  6019                           	line	769
  6020                           	
  6021  0C86                     l4354:	
  6022                           ;Main Card V10.0.c: 769: WriteSPI(adress);
  6023  0C86  0826               	movf	(RegisterSet@adress),w
  6024  0C87  120A  158A  23FF   	fcall	_WriteSPI
              120A  158A         
  6025                           	line	770
  6026                           	
  6027  0C8C                     l4356:	
  6028                           ;Main Card V10.0.c: 770: WriteSPI(value);
  6029  0C8C  1283               	bcf	status, 5	;RP0=0, select bank0
  6030  0C8D  1303               	bcf	status, 6	;RP1=0, select bank0
  6031  0C8E  0823               	movf	(RegisterSet@value),w
  6032  0C8F  120A  158A  23FF   	fcall	_WriteSPI
              120A  158A         
  6033                           	line	771
  6034                           	
  6035  0C94                     l4358:	
  6036                           ;Main Card V10.0.c: 771: PORTAbits.RA4 = 1;
  6037  0C94  1283               	bcf	status, 5	;RP0=0, select bank0
  6038  0C95  1303               	bcf	status, 6	;RP1=0, select bank0
  6039  0C96  1605               	bsf	(5),4	;volatile
  6040                           	line	772
  6041                           	
  6042  0C97                     l1233:	
  6043  0C97  0008               	return
  6044                           	opt stack 0
  6045                           GLOBAL	__end_of_RegisterSet
  6046  0C98                     	__end_of_RegisterSet:
  6047 ;; =============== function _RegisterSet ends ============
  6048                           
  6049                           	signat	_RegisterSet,8312
  6050                           	global	_strchr
  6051                           psect	text835,local,class=CODE,delta=2
  6052                           global __ptext835
  6053  0C60                     __ptext835:
  6054                           
  6055 ;; *************** function _strchr *****************
  6056 ;; Defined at:
  6057 ;;		line 5 in file "C:\Program Files (x86)\HI-TECH Software\PICC\9.83\sources\strchr.c"
  6058 ;; Parameters:    Size  Location     Type
  6059 ;;  ptr             1    wreg     PTR const unsigned char 
  6060 ;;		 -> NULL(0), TransmittedString(30), 
  6061 ;;  chr             2    0[BANK0 ] int 
  6062 ;; Auto vars:     Size  Location     Type
  6063 ;;  ptr             1    2[BANK0 ] PTR const unsigned char 
  6064 ;;		 -> NULL(0), TransmittedString(30), 
  6065 ;; Return value:  Size  Location     Type
  6066 ;;                  1    wreg      PTR unsigned char 
  6067 ;; Registers used:
  6068 ;;		wreg, fsr0l, fsr0h, status,2, status,0
  6069 ;; Tracked objects:
  6070 ;;		On entry : 0/0
  6071 ;;		On exit  : 0/0
  6072 ;;		Unchanged: 0/0
  6073 ;; Data sizes:     COMMON   BANK0   BANK1   BANK3   BANK2
  6074 ;;      Params:         0       2       0       0       0
  6075 ;;      Locals:         0       1       0       0       0
  6076 ;;      Temps:          0       0       0       0       0
  6077 ;;      Totals:         0       3       0       0       0
  6078 ;;Total ram usage:        3 bytes
  6079 ;; Hardware stack levels used:    1
  6080 ;; Hardware stack levels required when called:    2
  6081 ;; This function calls:
  6082 ;;		Nothing
  6083 ;; This function is called by:
  6084 ;;		_strstr
  6085 ;; This function uses a non-reentrant model
  6086 ;;
  6087                           psect	text835
  6088                           	file	"C:\Program Files (x86)\HI-TECH Software\PICC\9.83\sources\strchr.c"
  6089                           	line	5
  6090                           	global	__size_of_strchr
  6091  001C                     	__size_of_strchr	equ	__end_of_strchr-_strchr
  6092                           	
  6093  0C60                     _strchr:	
  6094                           	opt	stack 2
  6095                           ; Regs used in _strchr: [wreg-fsr0h+status,2+status,0]
  6096                           ;strchr@ptr stored from wreg
  6097  0C60  1283               	bcf	status, 5	;RP0=0, select bank0
  6098  0C61  1303               	bcf	status, 6	;RP1=0, select bank0
  6099  0C62  00A2               	movwf	(strchr@ptr)
  6100                           	line	6
  6101                           	
  6102  0C63                     l2551:	
  6103                           	line	7
  6104                           	
  6105  0C63                     l4332:	
  6106  0C63  0822               	movf	(strchr@ptr),w
  6107  0C64  0084               	movwf	fsr0
  6108  0C65  1383               	bcf	status, 7	;select IRP bank0
  6109  0C66  0800               	movf	indf,w
  6110  0C67  0620               	xorwf	(strchr@chr),w
  6111  0C68  1D03               	skipz
  6112  0C69  2C6B               	goto	u3361
  6113  0C6A  2C6C               	goto	u3360
  6114  0C6B                     u3361:
  6115  0C6B  2C6F               	goto	l4338
  6116  0C6C                     u3360:
  6117                           	line	8
  6118                           	
  6119  0C6C                     l4334:	
  6120  0C6C  0822               	movf	(strchr@ptr),w
  6121  0C6D  2C7B               	goto	l2553
  6122                           	
  6123  0C6E                     l4336:	
  6124  0C6E  2C7B               	goto	l2553
  6125                           	
  6126  0C6F                     l2552:	
  6127                           	line	9
  6128                           	
  6129  0C6F                     l4338:	
  6130  0C6F  0822               	movf	(strchr@ptr),w
  6131  0C70  0084               	movwf	fsr0
  6132  0C71  3001               	movlw	01h
  6133  0C72  07A2               	addwf	(strchr@ptr),f
  6134  0C73  0880               	movf	indf,f
  6135  0C74  1D03               	skipz
  6136  0C75  2C77               	goto	u3371
  6137  0C76  2C78               	goto	u3370
  6138  0C77                     u3371:
  6139  0C77  2C63               	goto	l2551
  6140  0C78                     u3370:
  6141  0C78  2C79               	goto	l4340
  6142                           	
  6143  0C79                     l2554:	
  6144                           	line	10
  6145                           	
  6146  0C79                     l4340:	
  6147  0C79  3000               	movlw	(0)
  6148  0C7A  2C7B               	goto	l2553
  6149                           	
  6150  0C7B                     l4342:	
  6151                           	line	11
  6152                           	
  6153  0C7B                     l2553:	
  6154  0C7B  0008               	return
  6155                           	opt stack 0
  6156                           GLOBAL	__end_of_strchr
  6157  0C7C                     	__end_of_strchr:
  6158 ;; =============== function _strchr ends ============
  6159                           
  6160                           	signat	_strchr,8313
  6161                           	global	_strncmp
  6162                           psect	text836,local,class=CODE,delta=2
  6163                           global __ptext836
  6164  05AC                     __ptext836:
  6165                           
  6166 ;; *************** function _strncmp *****************
  6167 ;; Defined at:
  6168 ;;		line 5 in file "C:\Program Files (x86)\HI-TECH Software\PICC\9.83\sources\strncmp.c"
  6169 ;; Parameters:    Size  Location     Type
  6170 ;;  s1              1    wreg     PTR const unsigned char 
  6171 ;;		 -> NULL(0), TransmittedString(30), 
  6172 ;;  s2              1   10[BANK0 ] PTR const unsigned char 
  6173 ;;		 -> STR_16(5), STR_15(6), STR_14(6), STR_13(8), 
  6174 ;;		 -> STR_10(7), STR_7(9), STR_6(7), STR_5(8), 
  6175 ;;		 -> STR_4(7), STR_3(7), STR_2(8), STR_1(8), 
  6176 ;;  len             2   11[BANK0 ] unsigned int 
  6177 ;; Auto vars:     Size  Location     Type
  6178 ;;  s1              1   15[BANK0 ] PTR const unsigned char 
  6179 ;;		 -> NULL(0), TransmittedString(30), 
  6180 ;; Return value:  Size  Location     Type
  6181 ;;                  2   10[BANK0 ] int 
  6182 ;; Registers used:
  6183 ;;		wreg, fsr0l, fsr0h, status,2, status,0, pclath
  6184 ;; Tracked objects:
  6185 ;;		On entry : 0/0
  6186 ;;		On exit  : 0/0
  6187 ;;		Unchanged: 0/0
  6188 ;; Data sizes:     COMMON   BANK0   BANK1   BANK3   BANK2
  6189 ;;      Params:         0       3       0       0       0
  6190 ;;      Locals:         0       1       0       0       0
  6191 ;;      Temps:          0       2       0       0       0
  6192 ;;      Totals:         0       6       0       0       0
  6193 ;;Total ram usage:        6 bytes
  6194 ;; Hardware stack levels used:    1
  6195 ;; Hardware stack levels required when called:    2
  6196 ;; This function calls:
  6197 ;;		Nothing
  6198 ;; This function is called by:
  6199 ;;		_strstr
  6200 ;; This function uses a non-reentrant model
  6201 ;;
  6202                           psect	text836
  6203                           	file	"C:\Program Files (x86)\HI-TECH Software\PICC\9.83\sources\strncmp.c"
  6204                           	line	5
  6205                           	global	__size_of_strncmp
  6206  0054                     	__size_of_strncmp	equ	__end_of_strncmp-_strncmp
  6207                           	
  6208  05AC                     _strncmp:	
  6209                           	opt	stack 2
  6210                           ; Regs used in _strncmp: [wreg-fsr0h+status,2+status,0+pclath]
  6211                           ;strncmp@s1 stored from wreg
  6212  05AC  1283               	bcf	status, 5	;RP0=0, select bank0
  6213  05AD  1303               	bcf	status, 6	;RP1=0, select bank0
  6214  05AE  00AF               	movwf	(strncmp@s1)
  6215                           	line	6
  6216                           	
  6217  05AF                     l4314:	
  6218  05AF  2DEB               	goto	l4326
  6219                           	
  6220  05B0                     l2564:	
  6221                           	line	7
  6222                           	
  6223  05B0                     l4316:	
  6224  05B0  082F               	movf	(strncmp@s1),w
  6225  05B1  0084               	movwf	fsr0
  6226  05B2  1383               	bcf	status, 7	;select IRP bank0
  6227  05B3  0880               	movf	indf
  6228  05B4  1903               	skipnz
  6229  05B5  2DB7               	goto	u3331
  6230  05B6  2DB8               	goto	u3330
  6231  05B7                     u3331:
  6232  05B7  2DC9               	goto	l4320
  6233  05B8                     u3330:
  6234                           	
  6235  05B8                     l4318:	
  6236  05B8  082A               	movf	(strncmp@s2),w
  6237  05B9  0084               	movwf	fsr0
  6238  05BA  120A  118A  260A   	fcall	stringdir
              120A  118A         
  6239  05BF  00AD               	movwf	(??_strncmp+0)+0
  6240  05C0  082F               	movf	(strncmp@s1),w
  6241  05C1  0084               	movwf	fsr0
  6242  05C2  0800               	movf	indf,w
  6243  05C3  062D               	xorwf	(??_strncmp+0)+0,w
  6244  05C4  1903               	skipnz
  6245  05C5  2DC7               	goto	u3341
  6246  05C6  2DC8               	goto	u3340
  6247  05C7                     u3341:
  6248  05C7  2DE2               	goto	l4324
  6249  05C8                     u3340:
  6250  05C8  2DC9               	goto	l4320
  6251                           	
  6252  05C9                     l2567:	
  6253                           	line	8
  6254                           	
  6255  05C9                     l4320:	
  6256  05C9  082A               	movf	(strncmp@s2),w
  6257  05CA  0084               	movwf	fsr0
  6258  05CB  120A  118A  260A   	fcall	stringdir
              120A  118A         
  6259  05D0  00AD               	movwf	(??_strncmp+0)+0
  6260  05D1  01AE               	clrf	(??_strncmp+0)+0+1
  6261  05D2  09AD               	comf	(??_strncmp+0)+0,f
  6262  05D3  09AE               	comf	(??_strncmp+0)+1,f
  6263  05D4  0AAD               	incf	(??_strncmp+0)+0,f
  6264  05D5  1903               	skipnz
  6265  05D6  0AAE               	incf	(??_strncmp+0)+1,f
  6266  05D7  082F               	movf	(strncmp@s1),w
  6267  05D8  0084               	movwf	fsr0
  6268  05D9  0800               	movf	indf,w
  6269  05DA  072D               	addwf	0+(??_strncmp+0)+0,w
  6270  05DB  00AA               	movwf	(?_strncmp)
  6271  05DC  082E               	movf	1+(??_strncmp+0)+0,w
  6272  05DD  1803               	skipnc
  6273  05DE  0A2E               	incf	1+(??_strncmp+0)+0,w
  6274  05DF  00AB               	movwf	((?_strncmp))+1
  6275  05E0  2DFF               	goto	l2568
  6276                           	
  6277  05E1                     l4322:	
  6278  05E1  2DFF               	goto	l2568
  6279                           	
  6280  05E2                     l2565:	
  6281                           	line	10
  6282                           	
  6283  05E2                     l4324:	
  6284  05E2  3001               	movlw	(01h)
  6285  05E3  00AD               	movwf	(??_strncmp+0)+0
  6286  05E4  082D               	movf	(??_strncmp+0)+0,w
  6287  05E5  07AF               	addwf	(strncmp@s1),f
  6288                           	line	11
  6289  05E6  3001               	movlw	(01h)
  6290  05E7  00AD               	movwf	(??_strncmp+0)+0
  6291  05E8  082D               	movf	(??_strncmp+0)+0,w
  6292  05E9  07AA               	addwf	(strncmp@s2),f
  6293  05EA  2DEB               	goto	l4326
  6294                           	line	12
  6295                           	
  6296  05EB                     l2563:	
  6297                           	line	6
  6298                           	
  6299  05EB                     l4326:	
  6300  05EB  3001               	movlw	low(01h)
  6301  05EC  02AB               	subwf	(strncmp@len),f
  6302  05ED  3000               	movlw	high(01h)
  6303  05EE  1C03               	skipc
  6304  05EF  03AC               	decf	(strncmp@len+1),f
  6305  05F0  02AC               	subwf	(strncmp@len+1),f
  6306  05F1  30FF               	movlw	high(0FFFFh)
  6307  05F2  062C               	xorwf	((strncmp@len+1)),w
  6308  05F3  1D03               	skipz
  6309  05F4  2DF7               	goto	u3355
  6310  05F5  30FF               	movlw	low(0FFFFh)
  6311  05F6  062B               	xorwf	((strncmp@len)),w
  6312  05F7                     u3355:
  6313                           
  6314  05F7  1D03               	skipz
  6315  05F8  2DFA               	goto	u3351
  6316  05F9  2DFB               	goto	u3350
  6317  05FA                     u3351:
  6318  05FA  2DB0               	goto	l4316
  6319  05FB                     u3350:
  6320  05FB  2DFC               	goto	l4328
  6321                           	
  6322  05FC                     l2569:	
  6323                           	line	13
  6324                           	
  6325  05FC                     l4328:	
  6326  05FC  01AA               	clrf	(?_strncmp)
  6327  05FD  01AB               	clrf	(?_strncmp+1)
  6328  05FE  2DFF               	goto	l2568
  6329                           	
  6330  05FF                     l4330:	
  6331                           	line	14
  6332                           	
  6333  05FF                     l2568:	
  6334  05FF  0008               	return
  6335                           	opt stack 0
  6336                           GLOBAL	__end_of_strncmp
  6337  0600                     	__end_of_strncmp:
  6338 ;; =============== function _strncmp ends ============
  6339                           
  6340                           	signat	_strncmp,12410
  6341                           	global	_strlen
  6342                           psect	text837,local,class=CODE,delta=2
  6343                           global __ptext837
  6344  0D61                     __ptext837:
  6345                           
  6346 ;; *************** function _strlen *****************
  6347 ;; Defined at:
  6348 ;;		line 5 in file "C:\Program Files (x86)\HI-TECH Software\PICC\9.83\sources\strlen.c"
  6349 ;; Parameters:    Size  Location     Type
  6350 ;;  s               1    wreg     PTR const unsigned char 
  6351 ;;		 -> STR_16(5), STR_15(6), STR_14(6), STR_13(8), 
  6352 ;;		 -> STR_10(7), STR_7(9), STR_6(7), STR_5(8), 
  6353 ;;		 -> STR_4(7), STR_3(7), STR_2(8), STR_1(8), 
  6354 ;; Auto vars:     Size  Location     Type
  6355 ;;  s               1    8[BANK0 ] PTR const unsigned char 
  6356 ;;		 -> STR_16(5), STR_15(6), STR_14(6), STR_13(8), 
  6357 ;;		 -> STR_10(7), STR_7(9), STR_6(7), STR_5(8), 
  6358 ;;		 -> STR_4(7), STR_3(7), STR_2(8), STR_1(8), 
  6359 ;;  cp              1    9[BANK0 ] PTR const unsigned char 
  6360 ;;		 -> STR_16(5), STR_15(6), STR_14(6), STR_13(8), 
  6361 ;;		 -> STR_10(7), STR_7(9), STR_6(7), STR_5(8), 
  6362 ;;		 -> STR_4(7), STR_3(7), STR_2(8), STR_1(8), 
  6363 ;; Return value:  Size  Location     Type
  6364 ;;                  2    0[BANK0 ] unsigned int 
  6365 ;; Registers used:
  6366 ;;		wreg, fsr0l, fsr0h, status,2, status,0, pclath
  6367 ;; Tracked objects:
  6368 ;;		On entry : 0/0
  6369 ;;		On exit  : 0/0
  6370 ;;		Unchanged: 0/0
  6371 ;; Data sizes:     COMMON   BANK0   BANK1   BANK3   BANK2
  6372 ;;      Params:         0       2       0       0       0
  6373 ;;      Locals:         0       2       0       0       0
  6374 ;;      Temps:          0       6       0       0       0
  6375 ;;      Totals:         0      10       0       0       0
  6376 ;;Total ram usage:       10 bytes
  6377 ;; Hardware stack levels used:    1
  6378 ;; Hardware stack levels required when called:    2
  6379 ;; This function calls:
  6380 ;;		Nothing
  6381 ;; This function is called by:
  6382 ;;		_strstr
  6383 ;; This function uses a non-reentrant model
  6384 ;;
  6385                           psect	text837
  6386                           	file	"C:\Program Files (x86)\HI-TECH Software\PICC\9.83\sources\strlen.c"
  6387                           	line	5
  6388                           	global	__size_of_strlen
  6389  0038                     	__size_of_strlen	equ	__end_of_strlen-_strlen
  6390                           	
  6391  0D61                     _strlen:	
  6392                           	opt	stack 2
  6393                           ; Regs used in _strlen: [wreg-fsr0h+status,2+status,0+pclath]
  6394                           ;strlen@s stored from wreg
  6395                           	line	8
  6396  0D61  1283               	bcf	status, 5	;RP0=0, select bank0
  6397  0D62  1303               	bcf	status, 6	;RP1=0, select bank0
  6398  0D63  00A8               	movwf	(strlen@s)
  6399                           	
  6400  0D64                     l4306:	
  6401  0D64  0828               	movf	(strlen@s),w
  6402  0D65  00A2               	movwf	(??_strlen+0)+0
  6403  0D66  0822               	movf	(??_strlen+0)+0,w
  6404  0D67  00A9               	movwf	(strlen@cp)
  6405                           	line	9
  6406  0D68  2D6A               	goto	l4308
  6407                           	
  6408  0D69                     l2558:	
  6409                           	line	10
  6410  0D69  2D6A               	goto	l4308
  6411                           	
  6412  0D6A                     l2557:	
  6413                           	line	9
  6414                           	
  6415  0D6A                     l4308:	
  6416  0D6A  3001               	movlw	01h
  6417  0D6B  07A9               	addwf	(strlen@cp),f
  6418  0D6C  30FF               	movlw	-01h
  6419  0D6D  0729               	addwf	(strlen@cp),w
  6420  0D6E  0084               	movwf	fsr0
  6421  0D6F  120A  118A  260A   	fcall	stringdir
              120A  158A         
  6422  0D74  3800               	iorlw	0
  6423  0D75  1D03               	skipz
  6424  0D76  2D78               	goto	u3321
  6425  0D77  2D79               	goto	u3320
  6426  0D78                     u3321:
  6427  0D78  2D6A               	goto	l4308
  6428  0D79                     u3320:
  6429  0D79  2D7A               	goto	l4310
  6430                           	
  6431  0D7A                     l2559:	
  6432                           	line	11
  6433                           	
  6434  0D7A                     l4310:	
  6435  0D7A  0828               	movf	(strlen@s),w
  6436  0D7B  00A2               	movwf	(??_strlen+0)+0
  6437  0D7C  3080               	movlw	80h
  6438  0D7D  00A3               	movwf	(??_strlen+0)+0+1
  6439  0D7E  09A2               	comf	(??_strlen+0)+0,f
  6440  0D7F  09A3               	comf	(??_strlen+0)+1,f
  6441  0D80  0AA2               	incf	(??_strlen+0)+0,f
  6442  0D81  1903               	skipnz
  6443  0D82  0AA3               	incf	(??_strlen+0)+1,f
  6444  0D83  0829               	movf	(strlen@cp),w
  6445  0D84  00A4               	movwf	(??_strlen+2)+0
  6446  0D85  3080               	movlw	80h
  6447  0D86  00A5               	movwf	(??_strlen+2)+0+1
  6448  0D87  0822               	movf	0+(??_strlen+0)+0,w
  6449  0D88  0724               	addwf	0+(??_strlen+2)+0,w
  6450  0D89  00A6               	movwf	(??_strlen+4)+0
  6451  0D8A  0823               	movf	1+(??_strlen+0)+0,w
  6452  0D8B  1803               	skipnc
  6453  0D8C  0A23               	incf	1+(??_strlen+0)+0,w
  6454  0D8D  0725               	addwf	1+(??_strlen+2)+0,w
  6455  0D8E  00A7               	movwf	1+(??_strlen+4)+0
  6456  0D8F  0826               	movf	0+(??_strlen+4)+0,w
  6457  0D90  3EFF               	addlw	low(-1)
  6458  0D91  00A0               	movwf	(?_strlen)
  6459  0D92  0827               	movf	1+(??_strlen+4)+0,w
  6460  0D93  1803               	skipnc
  6461  0D94  3E01               	addlw	1
  6462  0D95  3EFF               	addlw	high(-1)
  6463  0D96  00A1               	movwf	1+(?_strlen)
  6464  0D97  2D98               	goto	l2560
  6465                           	
  6466  0D98                     l4312:	
  6467                           	line	12
  6468                           	
  6469  0D98                     l2560:	
  6470  0D98  0008               	return
  6471                           	opt stack 0
  6472                           GLOBAL	__end_of_strlen
  6473  0D99                     	__end_of_strlen:
  6474 ;; =============== function _strlen ends ============
  6475                           
  6476                           	signat	_strlen,4218
  6477                           	global	_WriteSPI
  6478                           psect	text838,local,class=CODE,delta=2
  6479                           global __ptext838
  6480  0BFF                     __ptext838:
  6481                           
  6482 ;; *************** function _WriteSPI *****************
  6483 ;; Defined at:
  6484 ;;		line 575 in file "C:\Users\Seba\Documents\Projekt\Bustel\Bustel_Project\Bustel Card v10.0 code v1.7.1\Main Card V10.
       0.c"
  6485 ;; Parameters:    Size  Location     Type
  6486 ;;  databyte        1    wreg     unsigned char 
  6487 ;; Auto vars:     Size  Location     Type
  6488 ;;  databyte        1    2[BANK0 ] unsigned char 
  6489 ;;  buffer          1    1[BANK0 ] unsigned char 
  6490 ;; Return value:  Size  Location     Type
  6491 ;;		None               void
  6492 ;; Registers used:
  6493 ;;		wreg
  6494 ;; Tracked objects:
  6495 ;;		On entry : 0/0
  6496 ;;		On exit  : 0/0
  6497 ;;		Unchanged: 0/0
  6498 ;; Data sizes:     COMMON   BANK0   BANK1   BANK3   BANK2
  6499 ;;      Params:         0       0       0       0       0
  6500 ;;      Locals:         0       2       0       0       0
  6501 ;;      Temps:          0       1       0       0       0
  6502 ;;      Totals:         0       3       0       0       0
  6503 ;;Total ram usage:        3 bytes
  6504 ;; Hardware stack levels used:    1
  6505 ;; Hardware stack levels required when called:    2
  6506 ;; This function calls:
  6507 ;;		Nothing
  6508 ;; This function is called by:
  6509 ;;		_ReadSPI
  6510 ;;		_RegisterRead
  6511 ;;		_RegisterSet
  6512 ;;		_WriteFIFO
  6513 ;; This function uses a non-reentrant model
  6514 ;;
  6515                           psect	text838
  6516                           	file	"C:\Users\Seba\Documents\Projekt\Bustel\Bustel_Project\Bustel Card v10.0 code v1.7
                                 .1\Main Card V10.0.c"
  6517                           	line	575
  6518                           	global	__size_of_WriteSPI
  6519  0011                     	__size_of_WriteSPI	equ	__end_of_WriteSPI-_WriteSPI
  6520                           	
  6521  0BFF                     _WriteSPI:	
  6522                           	opt	stack 1
  6523                           ; Regs used in _WriteSPI: [wreg]
  6524                           ;WriteSPI@databyte stored from wreg
  6525                           	line	577
  6526  0BFF  1283               	bcf	status, 5	;RP0=0, select bank0
  6527  0C00  1303               	bcf	status, 6	;RP1=0, select bank0
  6528  0C01  00A2               	movwf	(WriteSPI@databyte)
  6529                           	
  6530  0C02                     l4238:	
  6531                           ;Main Card V10.0.c: 576: unsigned char buffer;
  6532                           ;Main Card V10.0.c: 577: buffer = SSPBUF;
  6533  0C02  0813               	movf	(19),w	;volatile
  6534  0C03  00A0               	movwf	(??_WriteSPI+0)+0
  6535  0C04  0820               	movf	(??_WriteSPI+0)+0,w
  6536  0C05  00A1               	movwf	(WriteSPI@buffer)
  6537                           	line	578
  6538                           	
  6539  0C06                     l4240:	
  6540                           ;Main Card V10.0.c: 578: PIR1bits.SSPIF=0;
  6541  0C06  118C               	bcf	(12),3	;volatile
  6542                           	line	579
  6543                           ;Main Card V10.0.c: 579: SSPBUF = databyte;
  6544  0C07  0822               	movf	(WriteSPI@databyte),w
  6545  0C08  0093               	movwf	(19)	;volatile
  6546                           	line	580
  6547                           ;Main Card V10.0.c: 580: while(PIR1bits.SSPIF == 0);
  6548  0C09  2C0A               	goto	l1192
  6549                           	
  6550  0C0A                     l1193:	
  6551                           	
  6552  0C0A                     l1192:	
  6553  0C0A  1D8C               	btfss	(12),3	;volatile
  6554  0C0B  2C0D               	goto	u3161
  6555  0C0C  2C0E               	goto	u3160
  6556  0C0D                     u3161:
  6557  0C0D  2C0A               	goto	l1192
  6558  0C0E                     u3160:
  6559                           	
  6560  0C0E                     l1194:	
  6561                           	line	581
  6562                           ;Main Card V10.0.c: 581: PIR1bits.SSPIF = 0;
  6563  0C0E  118C               	bcf	(12),3	;volatile
  6564                           	line	582
  6565                           	
  6566  0C0F                     l1195:	
  6567  0C0F  0008               	return
  6568                           	opt stack 0
  6569                           GLOBAL	__end_of_WriteSPI
  6570  0C10                     	__end_of_WriteSPI:
  6571 ;; =============== function _WriteSPI ends ============
  6572                           
  6573                           	signat	_WriteSPI,4216
  6574                           	global	_timerFunction
  6575                           psect	text839,local,class=CODE,delta=2
  6576                           global __ptext839
  6577  0C21                     __ptext839:
  6578                           
  6579 ;; *************** function _timerFunction *****************
  6580 ;; Defined at:
  6581 ;;		line 468 in file "C:\Users\Seba\Documents\Projekt\Bustel\Bustel_Project\Bustel Card v10.0 code v1.7.1\Main Card V10.
       0.c"
  6582 ;; Parameters:    Size  Location     Type
  6583 ;;  intTimerNumb    2    0[BANK0 ] int 
  6584 ;;  intSetSecond    2    2[BANK0 ] int 
  6585 ;; Auto vars:     Size  Location     Type
  6586 ;;		None
  6587 ;; Return value:  Size  Location     Type
  6588 ;;                  1    wreg      unsigned char 
  6589 ;; Registers used:
  6590 ;;		wreg, fsr0l, fsr0h, status,2, status,0
  6591 ;; Tracked objects:
  6592 ;;		On entry : 0/0
  6593 ;;		On exit  : 0/0
  6594 ;;		Unchanged: 0/0
  6595 ;; Data sizes:     COMMON   BANK0   BANK1   BANK3   BANK2
  6596 ;;      Params:         0       4       0       0       0
  6597 ;;      Locals:         0       0       0       0       0
  6598 ;;      Temps:          0       1       0       0       0
  6599 ;;      Totals:         0       5       0       0       0
  6600 ;;Total ram usage:        5 bytes
  6601 ;; Hardware stack levels used:    1
  6602 ;; Hardware stack levels required when called:    2
  6603 ;; This function calls:
  6604 ;;		Nothing
  6605 ;; This function is called by:
  6606 ;;		_TransiverToReceive
  6607 ;;		_TransiverReadFIFO
  6608 ;;		_TransmittString
  6609 ;;		_LightWithSensController
  6610 ;; This function uses a non-reentrant model
  6611 ;;
  6612                           psect	text839
  6613                           	file	"C:\Users\Seba\Documents\Projekt\Bustel\Bustel_Project\Bustel Card v10.0 code v1.7
                                 .1\Main Card V10.0.c"
  6614                           	line	468
  6615                           	global	__size_of_timerFunction
  6616  0013                     	__size_of_timerFunction	equ	__end_of_timerFunction-_timerFunction
  6617                           	
  6618  0C21                     _timerFunction:	
  6619                           	opt	stack 2
  6620                           ; Regs used in _timerFunction: [wreg-fsr0h+status,2+status,0]
  6621                           	line	469
  6622                           	
  6623  0C21                     l4218:	
  6624                           ;Main Card V10.0.c: 469: intClockTimer[intTimerNumber] = intSetSeconds;
  6625  0C21  1283               	bcf	status, 5	;RP0=0, select bank0
  6626  0C22  1303               	bcf	status, 6	;RP1=0, select bank0
  6627  0C23  0820               	movf	(timerFunction@intTimerNumber),w
  6628  0C24  00A4               	movwf	(??_timerFunction+0)+0
  6629  0C25  0724               	addwf	(??_timerFunction+0)+0,w
  6630  0C26  3EA0               	addlw	_intClockTimer&0ffh
  6631  0C27  0084               	movwf	fsr0
  6632  0C28  0822               	movf	(timerFunction@intSetSeconds),w
  6633  0C29  1383               	bcf	status, 7	;select IRP bank1
  6634  0C2A  0080               	movwf	indf
  6635  0C2B  0A84               	incf	fsr0,f
  6636  0C2C  0823               	movf	(timerFunction@intSetSeconds+1),w
  6637  0C2D  0080               	movwf	indf
  6638                           	line	470
  6639                           ;Main Card V10.0.c: 470: bTimerComplete[intTimerNumber] = 0;
  6640  0C2E  0820               	movf	(timerFunction@intTimerNumber),w
  6641  0C2F  3EAA               	addlw	_bTimerComplete&0ffh
  6642  0C30  0084               	movwf	fsr0
  6643  0C31  0180               	clrf	indf
  6644  0C32  2C33               	goto	l1170
  6645                           	line	471
  6646                           	
  6647  0C33                     l4220:	
  6648                           	line	472
  6649                           ;Main Card V10.0.c: 471: return 1;
  6650                           ;	Return value of _timerFunction is never used
  6651                           	
  6652  0C33                     l1170:	
  6653  0C33  0008               	return
  6654                           	opt stack 0
  6655                           GLOBAL	__end_of_timerFunction
  6656  0C34                     	__end_of_timerFunction:
  6657 ;; =============== function _timerFunction ends ============
  6658                           
  6659                           	signat	_timerFunction,8313
  6660                           	global	_OperationMode
  6661                           psect	text840,local,class=CODE,delta=2
  6662                           global __ptext840
  6663  0BD7                     __ptext840:
  6664                           
  6665 ;; *************** function _OperationMode *****************
  6666 ;; Defined at:
  6667 ;;		line 975 in file "C:\Users\Seba\Documents\Projekt\Bustel\Bustel_Project\Bustel Card v10.0 code v1.7.1\Main Card V10.
       0.c"
  6668 ;; Parameters:    Size  Location     Type
  6669 ;;		None
  6670 ;; Auto vars:     Size  Location     Type
  6671 ;;  bracketStatu    1    1[BANK0 ] unsigned char 
  6672 ;; Return value:  Size  Location     Type
  6673 ;;                  1    wreg      unsigned char 
  6674 ;; Registers used:
  6675 ;;		wreg, status,2
  6676 ;; Tracked objects:
  6677 ;;		On entry : 0/0
  6678 ;;		On exit  : 0/0
  6679 ;;		Unchanged: 0/0
  6680 ;; Data sizes:     COMMON   BANK0   BANK1   BANK3   BANK2
  6681 ;;      Params:         0       0       0       0       0
  6682 ;;      Locals:         0       1       0       0       0
  6683 ;;      Temps:          0       1       0       0       0
  6684 ;;      Totals:         0       2       0       0       0
  6685 ;;Total ram usage:        2 bytes
  6686 ;; Hardware stack levels used:    1
  6687 ;; Hardware stack levels required when called:    2
  6688 ;; This function calls:
  6689 ;;		Nothing
  6690 ;; This function is called by:
  6691 ;;		_main
  6692 ;;		_TransmittedDataHandler
  6693 ;; This function uses a non-reentrant model
  6694 ;;
  6695                           psect	text840
  6696                           	file	"C:\Users\Seba\Documents\Projekt\Bustel\Bustel_Project\Bustel Card v10.0 code v1.7
                                 .1\Main Card V10.0.c"
  6697                           	line	975
  6698                           	global	__size_of_OperationMode
  6699  000A                     	__size_of_OperationMode	equ	__end_of_OperationMode-_OperationMode
  6700                           	
  6701  0BD7                     _OperationMode:	
  6702                           	opt	stack 3
  6703                           ; Regs used in _OperationMode: [wreg+status,2]
  6704                           	line	977
  6705                           	
  6706  0BD7                     l4212:	
  6707                           ;Main Card V10.0.c: 976: unsigned char bracketStatus;
  6708                           ;Main Card V10.0.c: 977: bracketStatus = ((~PORTB) & 0b00000111) ;
  6709  0BD7  1283               	bcf	status, 5	;RP0=0, select bank0
  6710  0BD8  1303               	bcf	status, 6	;RP1=0, select bank0
  6711  0BD9  0906               	comf	(6),w	;volatile
  6712  0BDA  3907               	andlw	07h
  6713  0BDB  00A0               	movwf	(??_OperationMode+0)+0
  6714  0BDC  0820               	movf	(??_OperationMode+0)+0,w
  6715  0BDD  00A1               	movwf	(OperationMode@bracketStatus)
  6716                           	line	979
  6717                           	
  6718  0BDE                     l4214:	
  6719                           ;Main Card V10.0.c: 979: return bracketStatus;
  6720  0BDE  0821               	movf	(OperationMode@bracketStatus),w
  6721  0BDF  2BE0               	goto	l1269
  6722                           	
  6723  0BE0                     l4216:	
  6724                           	line	980
  6725                           	
  6726  0BE0                     l1269:	
  6727  0BE0  0008               	return
  6728                           	opt stack 0
  6729                           GLOBAL	__end_of_OperationMode
  6730  0BE1                     	__end_of_OperationMode:
  6731 ;; =============== function _OperationMode ends ============
  6732                           
  6733                           	signat	_OperationMode,89
  6734                           	global	_init
  6735                           psect	text841,local,class=CODE,delta=2
  6736                           global __ptext841
  6737  0E23                     __ptext841:
  6738                           
  6739 ;; *************** function _init *****************
  6740 ;; Defined at:
  6741 ;;		line 503 in file "C:\Users\Seba\Documents\Projekt\Bustel\Bustel_Project\Bustel Card v10.0 code v1.7.1\Main Card V10.
       0.c"
  6742 ;; Parameters:    Size  Location     Type
  6743 ;;		None
  6744 ;; Auto vars:     Size  Location     Type
  6745 ;;		None
  6746 ;; Return value:  Size  Location     Type
  6747 ;;		None               void
  6748 ;; Registers used:
  6749 ;;		wreg, status,2, status,0
  6750 ;; Tracked objects:
  6751 ;;		On entry : 0/0
  6752 ;;		On exit  : 0/0
  6753 ;;		Unchanged: 0/0
  6754 ;; Data sizes:     COMMON   BANK0   BANK1   BANK3   BANK2
  6755 ;;      Params:         0       0       0       0       0
  6756 ;;      Locals:         0       0       0       0       0
  6757 ;;      Temps:          0       0       0       0       0
  6758 ;;      Totals:         0       0       0       0       0
  6759 ;;Total ram usage:        0 bytes
  6760 ;; Hardware stack levels used:    1
  6761 ;; Hardware stack levels required when called:    2
  6762 ;; This function calls:
  6763 ;;		Nothing
  6764 ;; This function is called by:
  6765 ;;		_main
  6766 ;; This function uses a non-reentrant model
  6767 ;;
  6768                           psect	text841
  6769                           	file	"C:\Users\Seba\Documents\Projekt\Bustel\Bustel_Project\Bustel Card v10.0 code v1.7
                                 .1\Main Card V10.0.c"
  6770                           	line	503
  6771                           	global	__size_of_init
  6772  0055                     	__size_of_init	equ	__end_of_init-_init
  6773                           	
  6774  0E23                     _init:	
  6775                           	opt	stack 5
  6776                           ; Regs used in _init: [wreg+status,2+status,0]
  6777                           	line	505
  6778                           	
  6779  0E23                     l4140:	
  6780                           ;Main Card V10.0.c: 505: OSCCONbits.IRCF2 = 1;
  6781  0E23  1683               	bsf	status, 5	;RP0=1, select bank1
  6782  0E24  1303               	bcf	status, 6	;RP1=0, select bank1
  6783  0E25  170F               	bsf	(143)^080h,6	;volatile
  6784                           	line	506
  6785                           ;Main Card V10.0.c: 506: OSCCONbits.IRCF1 = 1;
  6786  0E26  168F               	bsf	(143)^080h,5	;volatile
  6787                           	line	507
  6788                           ;Main Card V10.0.c: 507: OSCCONbits.IRCF0 = 0;
  6789  0E27  120F               	bcf	(143)^080h,4	;volatile
  6790                           	line	508
  6791                           ;Main Card V10.0.c: 508: OSCCONbits.SCS = 1;
  6792  0E28  140F               	bsf	(143)^080h,0	;volatile
  6793                           	line	511
  6794                           	
  6795  0E29                     l4142:	
  6796                           ;Main Card V10.0.c: 511: PORTA = 0x00;
  6797  0E29  1283               	bcf	status, 5	;RP0=0, select bank0
  6798  0E2A  1303               	bcf	status, 6	;RP1=0, select bank0
  6799  0E2B  0185               	clrf	(5)	;volatile
  6800                           	line	512
  6801                           ;Main Card V10.0.c: 512: PORTB = 0x00;
  6802  0E2C  0186               	clrf	(6)	;volatile
  6803                           	line	513
  6804                           ;Main Card V10.0.c: 513: PORTC = 0x00;
  6805  0E2D  0187               	clrf	(7)	;volatile
  6806                           	line	514
  6807                           	
  6808  0E2E                     l4144:	
  6809                           ;Main Card V10.0.c: 514: TRISA = 0b00001011;
  6810  0E2E  300B               	movlw	(0Bh)
  6811  0E2F  1683               	bsf	status, 5	;RP0=1, select bank1
  6812  0E30  1303               	bcf	status, 6	;RP1=0, select bank1
  6813  0E31  0085               	movwf	(133)^080h	;volatile
  6814                           	line	515
  6815                           	
  6816  0E32                     l4146:	
  6817                           ;Main Card V10.0.c: 515: TRISB = 0b00111111;
  6818  0E32  303F               	movlw	(03Fh)
  6819  0E33  0086               	movwf	(134)^080h	;volatile
  6820                           	line	516
  6821                           	
  6822  0E34                     l4148:	
  6823                           ;Main Card V10.0.c: 516: TRISC = 0b00010000;
  6824  0E34  3010               	movlw	(010h)
  6825  0E35  0087               	movwf	(135)^080h	;volatile
  6826                           	line	517
  6827                           	
  6828  0E36                     l4150:	
  6829                           ;Main Card V10.0.c: 517: ANSEL = 0b00000000;
  6830  0E36  1683               	bsf	status, 5	;RP0=1, select bank3
  6831  0E37  1703               	bsf	status, 6	;RP1=1, select bank3
  6832  0E38  0188               	clrf	(392)^0180h	;volatile
  6833                           	line	518
  6834                           	
  6835  0E39                     l4152:	
  6836                           ;Main Card V10.0.c: 518: ANSELH = 0b00000000;
  6837  0E39  0189               	clrf	(393)^0180h	;volatile
  6838                           	line	519
  6839                           	
  6840  0E3A                     l4154:	
  6841                           ;Main Card V10.0.c: 519: ANSELbits.ANS0 = 1;
  6842  0E3A  1408               	bsf	(392)^0180h,0	;volatile
  6843                           	line	520
  6844                           	
  6845  0E3B                     l4156:	
  6846                           ;Main Card V10.0.c: 520: ANSELbits.ANS3 = 1;
  6847  0E3B  1588               	bsf	(392)^0180h,3	;volatile
  6848                           	line	521
  6849                           	
  6850  0E3C                     l4158:	
  6851                           ;Main Card V10.0.c: 521: OPTION_REGbits.nRBPU = 0;
  6852  0E3C  1683               	bsf	status, 5	;RP0=1, select bank1
  6853  0E3D  1303               	bcf	status, 6	;RP1=0, select bank1
  6854  0E3E  1381               	bcf	(129)^080h,7	;volatile
  6855                           	line	522
  6856                           	
  6857  0E3F                     l4160:	
  6858                           ;Main Card V10.0.c: 522: WPUBbits.WPUB5 = 0;
  6859  0E3F  1295               	bcf	(149)^080h,5	;volatile
  6860                           	line	523
  6861                           ;Main Card V10.0.c: 523: while(!PORTBbits.RB5);
  6862  0E40  2E41               	goto	l1180
  6863                           	
  6864  0E41                     l1181:	
  6865                           	
  6866  0E41                     l1180:	
  6867  0E41  1283               	bcf	status, 5	;RP0=0, select bank0
  6868  0E42  1E86               	btfss	(6),5	;volatile
  6869  0E43  2E45               	goto	u3121
  6870  0E44  2E46               	goto	u3120
  6871  0E45                     u3121:
  6872  0E45  2E41               	goto	l1180
  6873  0E46                     u3120:
  6874  0E46  2E47               	goto	l4162
  6875                           	
  6876  0E47                     l1182:	
  6877                           	line	526
  6878                           	
  6879  0E47                     l4162:	
  6880                           ;Main Card V10.0.c: 526: SSPCONbits.SSPM=0x00;
  6881  0E47  30F0               	movlw	((0 & ((1<<4)-1))<<0)|not (((1<<4)-1)<<0)
  6882  0E48  0594               	andwf	(20),f	;volatile
  6883                           	line	527
  6884                           	
  6885  0E49                     l4164:	
  6886                           ;Main Card V10.0.c: 527: SSPCONbits.CKP=0;
  6887  0E49  1214               	bcf	(20),4	;volatile
  6888                           	line	528
  6889                           	
  6890  0E4A                     l4166:	
  6891                           ;Main Card V10.0.c: 528: SSPSTATbits.CKE=1;
  6892  0E4A  1683               	bsf	status, 5	;RP0=1, select bank1
  6893  0E4B  1303               	bcf	status, 6	;RP1=0, select bank1
  6894  0E4C  1714               	bsf	(148)^080h,6	;volatile
  6895                           	line	529
  6896                           	
  6897  0E4D                     l4168:	
  6898                           ;Main Card V10.0.c: 529: SSPSTATbits.SMP=0;
  6899  0E4D  1394               	bcf	(148)^080h,7	;volatile
  6900                           	line	530
  6901                           	
  6902  0E4E                     l4170:	
  6903                           ;Main Card V10.0.c: 530: SSPCONbits.SSPEN=0x01;
  6904  0E4E  1283               	bcf	status, 5	;RP0=0, select bank0
  6905  0E4F  1303               	bcf	status, 6	;RP1=0, select bank0
  6906  0E50  1694               	bsf	(20),5	;volatile
  6907                           	line	531
  6908                           	
  6909  0E51                     l4172:	
  6910                           ;Main Card V10.0.c: 531: SSPIE = 0;
  6911  0E51  1683               	bsf	status, 5	;RP0=1, select bank1
  6912  0E52  1303               	bcf	status, 6	;RP1=0, select bank1
  6913  0E53  118C               	bcf	(1123/8)^080h,(1123)&7
  6914                           	line	534
  6915                           	
  6916  0E54                     l4174:	
  6917                           ;Main Card V10.0.c: 534: PORTAbits.RA5 = 1;
  6918  0E54  1283               	bcf	status, 5	;RP0=0, select bank0
  6919  0E55  1303               	bcf	status, 6	;RP1=0, select bank0
  6920  0E56  1685               	bsf	(5),5	;volatile
  6921                           	line	535
  6922                           	
  6923  0E57                     l4176:	
  6924                           ;Main Card V10.0.c: 535: PORTAbits.RA4 = 1;
  6925  0E57  1605               	bsf	(5),4	;volatile
  6926                           	line	538
  6927                           	
  6928  0E58                     l4178:	
  6929                           ;Main Card V10.0.c: 538: INTCONbits.RBIE = 1;
  6930  0E58  158B               	bsf	(11),3	;volatile
  6931                           	line	539
  6932                           	
  6933  0E59                     l4180:	
  6934                           ;Main Card V10.0.c: 539: INTCONbits.PEIE = 1;
  6935  0E59  170B               	bsf	(11),6	;volatile
  6936                           	line	540
  6937                           	
  6938  0E5A                     l4182:	
  6939                           ;Main Card V10.0.c: 540: PIE1bits.TMR1IE = 1;
  6940  0E5A  1683               	bsf	status, 5	;RP0=1, select bank1
  6941  0E5B  1303               	bcf	status, 6	;RP1=0, select bank1
  6942  0E5C  140C               	bsf	(140)^080h,0	;volatile
  6943                           	line	541
  6944                           	
  6945  0E5D                     l4184:	
  6946                           ;Main Card V10.0.c: 541: INTCONbits.GIE = 1;
  6947  0E5D  178B               	bsf	(11),7	;volatile
  6948                           	line	542
  6949                           	
  6950  0E5E                     l4186:	
  6951                           ;Main Card V10.0.c: 542: IOCBbits.IOCB5 = 1;
  6952  0E5E  1696               	bsf	(150)^080h,5	;volatile
  6953                           	line	545
  6954                           	
  6955  0E5F                     l4188:	
  6956                           ;Main Card V10.0.c: 545: T1CON = 0b00110000;
  6957  0E5F  3030               	movlw	(030h)
  6958  0E60  1283               	bcf	status, 5	;RP0=0, select bank0
  6959  0E61  1303               	bcf	status, 6	;RP1=0, select bank0
  6960  0E62  0090               	movwf	(16)	;volatile
  6961                           	line	546
  6962                           	
  6963  0E63                     l4190:	
  6964                           ;Main Card V10.0.c: 546: TMR1H = 0x0B;
  6965  0E63  300B               	movlw	(0Bh)
  6966  0E64  008F               	movwf	(15)	;volatile
  6967                           	line	547
  6968                           	
  6969  0E65                     l4192:	
  6970                           ;Main Card V10.0.c: 547: TMR1L = 0xDB;
  6971  0E65  30DB               	movlw	(0DBh)
  6972  0E66  008E               	movwf	(14)	;volatile
  6973                           	line	548
  6974                           	
  6975  0E67                     l4194:	
  6976                           ;Main Card V10.0.c: 548: T1CONbits.TMR1ON = 1;
  6977  0E67  1410               	bsf	(16),0	;volatile
  6978                           	line	551
  6979                           	
  6980  0E68                     l4196:	
  6981                           ;Main Card V10.0.c: 551: ADCON0bits.ADCS0 = 0;
  6982  0E68  131F               	bcf	(31),6	;volatile
  6983                           	line	552
  6984                           	
  6985  0E69                     l4198:	
  6986                           ;Main Card V10.0.c: 552: ADCON0bits.ADCS1 = 0;
  6987  0E69  139F               	bcf	(31),7	;volatile
  6988                           	line	553
  6989                           	
  6990  0E6A                     l4200:	
  6991                           ;Main Card V10.0.c: 553: ADCON1bits.ADFM = 0;
  6992  0E6A  1683               	bsf	status, 5	;RP0=1, select bank1
  6993  0E6B  1303               	bcf	status, 6	;RP1=0, select bank1
  6994  0E6C  139F               	bcf	(159)^080h,7	;volatile
  6995                           	line	554
  6996                           	
  6997  0E6D                     l4202:	
  6998                           ;Main Card V10.0.c: 554: ADCON1bits.VCFG1 = 0;
  6999  0E6D  129F               	bcf	(159)^080h,5	;volatile
  7000                           	line	555
  7001                           	
  7002  0E6E                     l4204:	
  7003                           ;Main Card V10.0.c: 555: ADCON1bits.VCFG0 = 0;
  7004  0E6E  121F               	bcf	(159)^080h,4	;volatile
  7005                           	line	558
  7006                           	
  7007  0E6F                     l4206:	
  7008                           ;Main Card V10.0.c: 558: intSecondCounter = 0;
  7009  0E6F  1283               	bcf	status, 5	;RP0=0, select bank0
  7010  0E70  1303               	bcf	status, 6	;RP1=0, select bank0
  7011  0E71  01E7               	clrf	(_intSecondCounter)
  7012  0E72  01E8               	clrf	(_intSecondCounter+1)
  7013                           	line	559
  7014                           	
  7015  0E73                     l4208:	
  7016                           ;Main Card V10.0.c: 559: intHalfSecondCounter = 0;
  7017  0E73  01E3               	clrf	(_intHalfSecondCounter)
  7018  0E74  01E4               	clrf	(_intHalfSecondCounter+1)
  7019                           	line	560
  7020                           	
  7021  0E75                     l4210:	
  7022                           ;Main Card V10.0.c: 560: intMinuteCounter = 0;
  7023  0E75  01E5               	clrf	(_intMinuteCounter)
  7024  0E76  01E6               	clrf	(_intMinuteCounter+1)
  7025                           	line	561
  7026                           	
  7027  0E77                     l1183:	
  7028  0E77  0008               	return
  7029                           	opt stack 0
  7030                           GLOBAL	__end_of_init
  7031  0E78                     	__end_of_init:
  7032 ;; =============== function _init ends ============
  7033                           
  7034                           	signat	_init,88
  7035                           	global	_tc_int
  7036                           psect	text842,local,class=CODE,delta=2
  7037                           global __ptext842
  7038  03EB                     __ptext842:
  7039                           
  7040 ;; *************** function _tc_int *****************
  7041 ;; Defined at:
  7042 ;;		line 842 in file "C:\Users\Seba\Documents\Projekt\Bustel\Bustel_Project\Bustel Card v10.0 code v1.7.1\Main Card V10.
       0.c"
  7043 ;; Parameters:    Size  Location     Type
  7044 ;;		None
  7045 ;; Auto vars:     Size  Location     Type
  7046 ;;		None
  7047 ;; Return value:  Size  Location     Type
  7048 ;;		None               void
  7049 ;; Registers used:
  7050 ;;		wreg, fsr0l, fsr0h, status,2, status,0, btemp+1, pclath, cstack
  7051 ;; Tracked objects:
  7052 ;;		On entry : 0/0
  7053 ;;		On exit  : 0/0
  7054 ;;		Unchanged: 0/0
  7055 ;; Data sizes:     COMMON   BANK0   BANK1   BANK3   BANK2
  7056 ;;      Params:         0       0       0       0       0
  7057 ;;      Locals:         0       0       0       0       0
  7058 ;;      Temps:          7       0       0       0       0
  7059 ;;      Totals:         7       0       0       0       0
  7060 ;;Total ram usage:        7 bytes
  7061 ;; Hardware stack levels used:    1
  7062 ;; Hardware stack levels required when called:    1
  7063 ;; This function calls:
  7064 ;;		i1_OperationMode
  7065 ;;		_TimerCounter
  7066 ;; This function is called by:
  7067 ;;		Interrupt level 1
  7068 ;; This function uses a non-reentrant model
  7069 ;;
  7070                           psect	text842
  7071                           	file	"C:\Users\Seba\Documents\Projekt\Bustel\Bustel_Project\Bustel Card v10.0 code v1.7
                                 .1\Main Card V10.0.c"
  7072                           	line	842
  7073                           	global	__size_of_tc_int
  7074  00EF                     	__size_of_tc_int	equ	__end_of_tc_int-_tc_int
  7075                           	
  7076  03EB                     _tc_int:	
  7077 ;; hardware stack exceeded
  7078                           	opt	stack 0
  7079                           ; Regs used in _tc_int: [wreg-fsr0h+status,2+status,0+btemp+1+pclath+cstack]
  7080                           psect	intentry,class=CODE,delta=2
  7081                           global __pintentry
  7082  0004                     __pintentry:
  7083                           global interrupt_function
  7084  0004                     interrupt_function:
  7085                           	global saved_w
  7086  007E                     	saved_w	set	btemp+0
  7087  0004  00FE               	movwf	saved_w
  7088  0005  0E03               	swapf	status,w
  7089  0006  00F8               	movwf	(??_tc_int+3)
  7090  0007  0804               	movf	fsr0,w
  7091  0008  00F9               	movwf	(??_tc_int+4)
  7092  0009  080A               	movf	pclath,w
  7093  000A  00FA               	movwf	(??_tc_int+5)
  7094  000B  1283               	bcf	status, 5	;RP0=0, select bank0
  7095  000C  1303               	bcf	status, 6	;RP1=0, select bank0
  7096  000D  087F               	movf	btemp+1,w
  7097  000E  00FB               	movwf	(??_tc_int+6)
  7098  000F  120A  118A  2BEB   	ljmp	_tc_int
  7099                           psect	text842
  7100                           	line	846
  7101                           	
  7102  03EB                     i1l4242:	
  7103                           ;Main Card V10.0.c: 846: if((PORTBbits.RB5 == 0)&&(intBlinkCycle == 0)&&(OperationMode()
                                  < 2)){
  7104  03EB  1A86               	btfsc	(6),5	;volatile
  7105  03EC  2BEE               	goto	u317_21
  7106  03ED  2BEF               	goto	u317_20
  7107  03EE                     u317_21:
  7108  03EE  2C0A               	goto	i1l4252
  7109  03EF                     u317_20:
  7110                           	
  7111  03EF                     i1l4244:	
  7112  03EF  0860               	movf	((_intBlinkCycle+1)),w
  7113  03F0  045F               	iorwf	((_intBlinkCycle)),w
  7114  03F1  1D03               	skipz
  7115  03F2  2BF4               	goto	u318_21
  7116  03F3  2BF5               	goto	u318_20
  7117  03F4                     u318_21:
  7118  03F4  2C0A               	goto	i1l4252
  7119  03F5                     u318_20:
  7120                           	
  7121  03F5                     i1l4246:	
  7122  03F5  120A  158A  23CD   	fcall	i1_OperationMode
              120A  118A         
  7123  03FA  00F5               	movwf	(??_tc_int+0)+0
  7124  03FB  3002               	movlw	(02h)
  7125  03FC  0275               	subwf	0+(??_tc_int+0)+0,w
  7126  03FD  1803               	skipnc
  7127  03FE  2C00               	goto	u319_21
  7128  03FF  2C01               	goto	u319_20
  7129  0400                     u319_21:
  7130  0400  2C0A               	goto	i1l4252
  7131  0401                     u319_20:
  7132                           	line	847
  7133                           	
  7134  0401                     i1l4248:	
  7135                           ;Main Card V10.0.c: 847: intBlinkCycle = 1;
  7136  0401  3001               	movlw	low(01h)
  7137  0402  1283               	bcf	status, 5	;RP0=0, select bank0
  7138  0403  1303               	bcf	status, 6	;RP1=0, select bank0
  7139  0404  00DF               	movwf	(_intBlinkCycle)
  7140  0405  3000               	movlw	high(01h)
  7141  0406  00E0               	movwf	((_intBlinkCycle))+1
  7142                           	line	848
  7143                           	
  7144  0407                     i1l4250:	
  7145                           ;Main Card V10.0.c: 848: intBlinkCounter = 0;
  7146  0407  01FC               	clrf	(_intBlinkCounter)
  7147  0408  01FD               	clrf	(_intBlinkCounter+1)
  7148  0409  2C0A               	goto	i1l4252
  7149                           	line	850
  7150                           	
  7151  040A                     i1l1242:	
  7152                           	line	851
  7153                           	
  7154  040A                     i1l4252:	
  7155                           ;Main Card V10.0.c: 850: }
  7156                           ;Main Card V10.0.c: 851: if(TMR1IF ==1){
  7157  040A  1283               	bcf	status, 5	;RP0=0, select bank0
  7158  040B  1303               	bcf	status, 6	;RP1=0, select bank0
  7159  040C  1C0C               	btfss	(96/8),(96)&7
  7160  040D  2C0F               	goto	u320_21
  7161  040E  2C10               	goto	u320_20
  7162  040F                     u320_21:
  7163  040F  2CCB               	goto	i1l4298
  7164  0410                     u320_20:
  7165                           	line	852
  7166                           	
  7167  0410                     i1l4254:	
  7168                           ;Main Card V10.0.c: 852: TMR1ON = 0;
  7169  0410  1010               	bcf	(128/8),(128)&7
  7170                           	line	853
  7171                           	
  7172  0411                     i1l4256:	
  7173                           ;Main Card V10.0.c: 853: TMR1H = 0x0B;
  7174  0411  300B               	movlw	(0Bh)
  7175  0412  008F               	movwf	(15)	;volatile
  7176                           	line	854
  7177                           ;Main Card V10.0.c: 854: TMR1L = 0xDB;
  7178  0413  30DB               	movlw	(0DBh)
  7179  0414  008E               	movwf	(14)	;volatile
  7180                           	line	856
  7181                           ;Main Card V10.0.c: 856: if((intBlinkCycle == 1)&&(intBlinkCounter<intNumberOfBlinks*2))
                                 {
  7182  0415  3001               	movlw	01h
  7183  0416  065F               	xorwf	(_intBlinkCycle),w
  7184  0417  0460               	iorwf	(_intBlinkCycle+1),w
  7185  0418  1D03               	skipz
  7186  0419  2C1B               	goto	u321_21
  7187  041A  2C1C               	goto	u321_20
  7188  041B                     u321_21:
  7189  041B  2C4B               	goto	i1l4268
  7190  041C                     u321_20:
  7191                           	
  7192  041C                     i1l4258:	
  7193  041C  086D               	movf	(_intNumberOfBlinks+1),w
  7194  041D  00F6               	movwf	(??_tc_int+0)+0+1
  7195  041E  086C               	movf	(_intNumberOfBlinks),w
  7196  041F  00F5               	movwf	(??_tc_int+0)+0
  7197  0420  3001               	movlw	01h
  7198  0421  00FF               	movwf	btemp+1
  7199  0422                     u322_25:
  7200  0422  1003               	clrc
  7201  0423  0DF5               	rlf	(??_tc_int+0)+0,f
  7202  0424  0DF6               	rlf	(??_tc_int+0)+1,f
  7203  0425  0BFF               	decfsz	btemp+1,f
  7204  0426  2C22               	goto	u322_25
  7205  0427  087D               	movf	(_intBlinkCounter+1),w
  7206  0428  3A80               	xorlw	80h
  7207  0429  00F7               	movwf	(??_tc_int+2)+0
  7208  042A  0876               	movf	1+(??_tc_int+0)+0,w
  7209  042B  3A80               	xorlw	80h
  7210  042C  0277               	subwf	(??_tc_int+2)+0,w
  7211  042D  1D03               	skipz
  7212  042E  2C31               	goto	u323_25
  7213  042F  0875               	movf	0+(??_tc_int+0)+0,w
  7214  0430  027C               	subwf	(_intBlinkCounter),w
  7215  0431                     u323_25:
  7216                           
  7217  0431  1803               	skipnc
  7218  0432  2C34               	goto	u323_21
  7219  0433  2C35               	goto	u323_20
  7220  0434                     u323_21:
  7221  0434  2C4B               	goto	i1l4268
  7222  0435                     u323_20:
  7223                           	line	857
  7224                           	
  7225  0435                     i1l4260:	
  7226                           ;Main Card V10.0.c: 857: intBlinkCounter++;
  7227  0435  3001               	movlw	low(01h)
  7228  0436  07FC               	addwf	(_intBlinkCounter),f
  7229  0437  1803               	skipnc
  7230  0438  0AFD               	incf	(_intBlinkCounter+1),f
  7231  0439  3000               	movlw	high(01h)
  7232  043A  07FD               	addwf	(_intBlinkCounter+1),f
  7233                           	line	859
  7234                           	
  7235  043B                     i1l4262:	
  7236                           ;Main Card V10.0.c: 859: if(PORTCbits.RC1 == 0)
  7237  043B  1283               	bcf	status, 5	;RP0=0, select bank0
  7238  043C  1303               	bcf	status, 6	;RP1=0, select bank0
  7239  043D  1887               	btfsc	(7),1	;volatile
  7240  043E  2C40               	goto	u324_21
  7241  043F  2C41               	goto	u324_20
  7242  0440                     u324_21:
  7243  0440  2C43               	goto	i1l1245
  7244  0441                     u324_20:
  7245                           	line	860
  7246                           	
  7247  0441                     i1l4264:	
  7248                           ;Main Card V10.0.c: 860: PORTCbits.RC1 = 1;
  7249  0441  1487               	bsf	(7),1	;volatile
  7250  0442  2C74               	goto	i1l4276
  7251                           	line	861
  7252                           	
  7253  0443                     i1l1245:	
  7254                           ;Main Card V10.0.c: 861: else if(PORTCbits.RC1 == 1)
  7255  0443  1C87               	btfss	(7),1	;volatile
  7256  0444  2C46               	goto	u325_21
  7257  0445  2C47               	goto	u325_20
  7258  0446                     u325_21:
  7259  0446  2C74               	goto	i1l4276
  7260  0447                     u325_20:
  7261                           	line	862
  7262                           	
  7263  0447                     i1l4266:	
  7264                           ;Main Card V10.0.c: 862: PORTCbits.RC1 = 0;
  7265  0447  1087               	bcf	(7),1	;volatile
  7266  0448  2C74               	goto	i1l4276
  7267                           	
  7268  0449                     i1l1247:	
  7269  0449  2C74               	goto	i1l4276
  7270                           	line	863
  7271                           	
  7272  044A                     i1l1246:	
  7273                           ;Main Card V10.0.c: 863: }
  7274  044A  2C74               	goto	i1l4276
  7275                           	line	865
  7276                           	
  7277  044B                     i1l1244:	
  7278                           	
  7279  044B                     i1l4268:	
  7280                           ;Main Card V10.0.c: 865: else if((intBlinkCycle == 1)&&(intBlinkCounter >=intNumberOfBli
                                 nks*2)){
  7281  044B  3001               	movlw	01h
  7282  044C  1283               	bcf	status, 5	;RP0=0, select bank0
  7283  044D  1303               	bcf	status, 6	;RP1=0, select bank0
  7284  044E  065F               	xorwf	(_intBlinkCycle),w
  7285  044F  0460               	iorwf	(_intBlinkCycle+1),w
  7286  0450  1D03               	skipz
  7287  0451  2C53               	goto	u326_21
  7288  0452  2C54               	goto	u326_20
  7289  0453                     u326_21:
  7290  0453  2C74               	goto	i1l4276
  7291  0454                     u326_20:
  7292                           	
  7293  0454                     i1l4270:	
  7294  0454  086D               	movf	(_intNumberOfBlinks+1),w
  7295  0455  00F6               	movwf	(??_tc_int+0)+0+1
  7296  0456  086C               	movf	(_intNumberOfBlinks),w
  7297  0457  00F5               	movwf	(??_tc_int+0)+0
  7298  0458  3001               	movlw	01h
  7299  0459  00FF               	movwf	btemp+1
  7300  045A                     u327_25:
  7301  045A  1003               	clrc
  7302  045B  0DF5               	rlf	(??_tc_int+0)+0,f
  7303  045C  0DF6               	rlf	(??_tc_int+0)+1,f
  7304  045D  0BFF               	decfsz	btemp+1,f
  7305  045E  2C5A               	goto	u327_25
  7306  045F  087D               	movf	(_intBlinkCounter+1),w
  7307  0460  3A80               	xorlw	80h
  7308  0461  00F7               	movwf	(??_tc_int+2)+0
  7309  0462  0876               	movf	1+(??_tc_int+0)+0,w
  7310  0463  3A80               	xorlw	80h
  7311  0464  0277               	subwf	(??_tc_int+2)+0,w
  7312  0465  1D03               	skipz
  7313  0466  2C69               	goto	u328_25
  7314  0467  0875               	movf	0+(??_tc_int+0)+0,w
  7315  0468  027C               	subwf	(_intBlinkCounter),w
  7316  0469                     u328_25:
  7317                           
  7318  0469  1C03               	skipc
  7319  046A  2C6C               	goto	u328_21
  7320  046B  2C6D               	goto	u328_20
  7321  046C                     u328_21:
  7322  046C  2C74               	goto	i1l4276
  7323  046D                     u328_20:
  7324                           	line	866
  7325                           	
  7326  046D                     i1l4272:	
  7327                           ;Main Card V10.0.c: 866: intBlinkCycle = 0;
  7328  046D  1283               	bcf	status, 5	;RP0=0, select bank0
  7329  046E  1303               	bcf	status, 6	;RP1=0, select bank0
  7330  046F  01DF               	clrf	(_intBlinkCycle)
  7331  0470  01E0               	clrf	(_intBlinkCycle+1)
  7332                           	line	867
  7333                           	
  7334  0471                     i1l4274:	
  7335                           ;Main Card V10.0.c: 867: PORTCbits.RC1 = 0;
  7336  0471  1087               	bcf	(7),1	;volatile
  7337  0472  2C74               	goto	i1l4276
  7338                           	line	868
  7339                           	
  7340  0473                     i1l1249:	
  7341  0473  2C74               	goto	i1l4276
  7342                           	line	871
  7343                           	
  7344  0474                     i1l1248:	
  7345                           	
  7346  0474                     i1l4276:	
  7347                           ;Main Card V10.0.c: 868: }
  7348                           ;Main Card V10.0.c: 871: intHalfSecondCounter++;
  7349  0474  3001               	movlw	low(01h)
  7350  0475  1283               	bcf	status, 5	;RP0=0, select bank0
  7351  0476  1303               	bcf	status, 6	;RP1=0, select bank0
  7352  0477  07E3               	addwf	(_intHalfSecondCounter),f
  7353  0478  1803               	skipnc
  7354  0479  0AE4               	incf	(_intHalfSecondCounter+1),f
  7355  047A  3000               	movlw	high(01h)
  7356  047B  07E4               	addwf	(_intHalfSecondCounter+1),f
  7357                           	line	872
  7358                           	
  7359  047C                     i1l4278:	
  7360                           ;Main Card V10.0.c: 872: if(intHalfSecondCounter>=2)
  7361  047C  0864               	movf	(_intHalfSecondCounter+1),w
  7362  047D  3A80               	xorlw	80h
  7363  047E  00FF               	movwf	btemp+1
  7364  047F  3080               	movlw	(high(02h))^80h
  7365  0480  027F               	subwf	btemp+1,w
  7366  0481  1D03               	skipz
  7367  0482  2C85               	goto	u329_25
  7368  0483  3002               	movlw	low(02h)
  7369  0484  0263               	subwf	(_intHalfSecondCounter),w
  7370  0485                     u329_25:
  7371                           
  7372  0485  1C03               	skipc
  7373  0486  2C88               	goto	u329_21
  7374  0487  2C89               	goto	u329_20
  7375  0488                     u329_21:
  7376  0488  2C99               	goto	i1l4286
  7377  0489                     u329_20:
  7378                           	line	874
  7379                           	
  7380  0489                     i1l4280:	
  7381                           ;Main Card V10.0.c: 873: {
  7382                           ;Main Card V10.0.c: 874: intHalfSecondCounter = 0;
  7383  0489  1283               	bcf	status, 5	;RP0=0, select bank0
  7384  048A  1303               	bcf	status, 6	;RP1=0, select bank0
  7385  048B  01E3               	clrf	(_intHalfSecondCounter)
  7386  048C  01E4               	clrf	(_intHalfSecondCounter+1)
  7387                           	line	875
  7388                           	
  7389  048D                     i1l4282:	
  7390                           ;Main Card V10.0.c: 875: intSecondCounter++;
  7391  048D  3001               	movlw	low(01h)
  7392  048E  07E7               	addwf	(_intSecondCounter),f
  7393  048F  1803               	skipnc
  7394  0490  0AE8               	incf	(_intSecondCounter+1),f
  7395  0491  3000               	movlw	high(01h)
  7396  0492  07E8               	addwf	(_intSecondCounter+1),f
  7397                           	line	876
  7398                           	
  7399  0493                     i1l4284:	
  7400                           ;Main Card V10.0.c: 876: TimerCounter();
  7401  0493  120A  158A  2678   	fcall	_TimerCounter
              120A  118A         
  7402  0498  2C99               	goto	i1l4286
  7403                           	line	877
  7404                           	
  7405  0499                     i1l1250:	
  7406                           	line	878
  7407                           	
  7408  0499                     i1l4286:	
  7409                           ;Main Card V10.0.c: 877: }
  7410                           ;Main Card V10.0.c: 878: if(intSecondCounter >=60)
  7411  0499  1283               	bcf	status, 5	;RP0=0, select bank0
  7412  049A  1303               	bcf	status, 6	;RP1=0, select bank0
  7413  049B  0868               	movf	(_intSecondCounter+1),w
  7414  049C  3A80               	xorlw	80h
  7415  049D  00FF               	movwf	btemp+1
  7416  049E  3080               	movlw	(high(03Ch))^80h
  7417  049F  027F               	subwf	btemp+1,w
  7418  04A0  1D03               	skipz
  7419  04A1  2CA4               	goto	u330_25
  7420  04A2  303C               	movlw	low(03Ch)
  7421  04A3  0267               	subwf	(_intSecondCounter),w
  7422  04A4                     u330_25:
  7423                           
  7424  04A4  1C03               	skipc
  7425  04A5  2CA7               	goto	u330_21
  7426  04A6  2CA8               	goto	u330_20
  7427  04A7                     u330_21:
  7428  04A7  2CB3               	goto	i1l4292
  7429  04A8                     u330_20:
  7430                           	line	880
  7431                           	
  7432  04A8                     i1l4288:	
  7433                           ;Main Card V10.0.c: 879: {
  7434                           ;Main Card V10.0.c: 880: intSecondCounter = 0;
  7435  04A8  1283               	bcf	status, 5	;RP0=0, select bank0
  7436  04A9  1303               	bcf	status, 6	;RP1=0, select bank0
  7437  04AA  01E7               	clrf	(_intSecondCounter)
  7438  04AB  01E8               	clrf	(_intSecondCounter+1)
  7439                           	line	881
  7440                           	
  7441  04AC                     i1l4290:	
  7442                           ;Main Card V10.0.c: 881: intMinuteCounter++;
  7443  04AC  3001               	movlw	low(01h)
  7444  04AD  07E5               	addwf	(_intMinuteCounter),f
  7445  04AE  1803               	skipnc
  7446  04AF  0AE6               	incf	(_intMinuteCounter+1),f
  7447  04B0  3000               	movlw	high(01h)
  7448  04B1  07E6               	addwf	(_intMinuteCounter+1),f
  7449  04B2  2CB3               	goto	i1l4292
  7450                           	line	882
  7451                           	
  7452  04B3                     i1l1251:	
  7453                           	line	883
  7454                           	
  7455  04B3                     i1l4292:	
  7456                           ;Main Card V10.0.c: 882: }
  7457                           ;Main Card V10.0.c: 883: if(intMinuteCounter >= 60)
  7458  04B3  1283               	bcf	status, 5	;RP0=0, select bank0
  7459  04B4  1303               	bcf	status, 6	;RP1=0, select bank0
  7460  04B5  0866               	movf	(_intMinuteCounter+1),w
  7461  04B6  3A80               	xorlw	80h
  7462  04B7  00FF               	movwf	btemp+1
  7463  04B8  3080               	movlw	(high(03Ch))^80h
  7464  04B9  027F               	subwf	btemp+1,w
  7465  04BA  1D03               	skipz
  7466  04BB  2CBE               	goto	u331_25
  7467  04BC  303C               	movlw	low(03Ch)
  7468  04BD  0265               	subwf	(_intMinuteCounter),w
  7469  04BE                     u331_25:
  7470                           
  7471  04BE  1C03               	skipc
  7472  04BF  2CC1               	goto	u331_21
  7473  04C0  2CC2               	goto	u331_20
  7474  04C1                     u331_21:
  7475  04C1  2CC7               	goto	i1l4296
  7476  04C2                     u331_20:
  7477                           	line	885
  7478                           	
  7479  04C2                     i1l4294:	
  7480                           ;Main Card V10.0.c: 884: {
  7481                           ;Main Card V10.0.c: 885: intMinuteCounter = 0;
  7482  04C2  1283               	bcf	status, 5	;RP0=0, select bank0
  7483  04C3  1303               	bcf	status, 6	;RP1=0, select bank0
  7484  04C4  01E5               	clrf	(_intMinuteCounter)
  7485  04C5  01E6               	clrf	(_intMinuteCounter+1)
  7486  04C6  2CC7               	goto	i1l4296
  7487                           	line	886
  7488                           	
  7489  04C7                     i1l1252:	
  7490                           	line	889
  7491                           	
  7492  04C7                     i1l4296:	
  7493                           ;Main Card V10.0.c: 886: }
  7494                           ;Main Card V10.0.c: 889: TMR1ON = 1;
  7495  04C7  1283               	bcf	status, 5	;RP0=0, select bank0
  7496  04C8  1303               	bcf	status, 6	;RP1=0, select bank0
  7497  04C9  1410               	bsf	(128/8),(128)&7
  7498  04CA  2CCB               	goto	i1l4298
  7499                           	line	890
  7500                           	
  7501  04CB                     i1l1243:	
  7502                           	line	891
  7503                           	
  7504  04CB                     i1l4298:	
  7505                           ;Main Card V10.0.c: 890: }
  7506                           ;Main Card V10.0.c: 891: TMR1IF = 0;
  7507  04CB  100C               	bcf	(96/8),(96)&7
  7508                           	line	892
  7509                           	
  7510  04CC                     i1l4300:	
  7511                           ;Main Card V10.0.c: 892: RBIF = 0;
  7512  04CC  100B               	bcf	(88/8),(88)&7
  7513                           	line	893
  7514                           	
  7515  04CD                     i1l4302:	
  7516                           ;Main Card V10.0.c: 893: GIE = 1;
  7517  04CD  178B               	bsf	(95/8),(95)&7
  7518  04CE  2CCF               	goto	i1l1253
  7519                           	line	894
  7520                           	
  7521  04CF                     i1l4304:	
  7522                           	line	895
  7523                           ;Main Card V10.0.c: 894: return;
  7524                           	
  7525  04CF                     i1l1253:	
  7526  04CF  087B               	movf	(??_tc_int+6),w
  7527  04D0  00FF               	movwf	btemp+1
  7528  04D1  087A               	movf	(??_tc_int+5),w
  7529  04D2  008A               	movwf	pclath
  7530  04D3  0879               	movf	(??_tc_int+4),w
  7531  04D4  0084               	movwf	fsr0
  7532  04D5  0E78               	swapf	(??_tc_int+3)^0FFFFFF80h,w
  7533  04D6  0083               	movwf	status
  7534  04D7  0EFE               	swapf	saved_w,f
  7535  04D8  0E7E               	swapf	saved_w,w
  7536  04D9  0009               	retfie
  7537                           	opt stack 0
  7538                           GLOBAL	__end_of_tc_int
  7539  04DA                     	__end_of_tc_int:
  7540 ;; =============== function _tc_int ends ============
  7541                           
  7542                           	signat	_tc_int,88
  7543                           	global	i1_OperationMode
  7544                           psect	text843,local,class=CODE,delta=2
  7545                           global __ptext843
  7546  0BCD                     __ptext843:
  7547                           
  7548 ;; *************** function i1_OperationMode *****************
  7549 ;; Defined at:
  7550 ;;		line 975 in file "C:\Users\Seba\Documents\Projekt\Bustel\Bustel_Project\Bustel Card v10.0 code v1.7.1\Main Card V10.
       0.c"
  7551 ;; Parameters:    Size  Location     Type
  7552 ;;		None
  7553 ;; Auto vars:     Size  Location     Type
  7554 ;;  OperationMod    1    1[COMMON] unsigned char 
  7555 ;; Return value:  Size  Location     Type
  7556 ;;                  1    wreg      unsigned char 
  7557 ;; Registers used:
  7558 ;;		wreg, status,2
  7559 ;; Tracked objects:
  7560 ;;		On entry : 0/0
  7561 ;;		On exit  : 0/0
  7562 ;;		Unchanged: 0/0
  7563 ;; Data sizes:     COMMON   BANK0   BANK1   BANK3   BANK2
  7564 ;;      Params:         0       0       0       0       0
  7565 ;;      Locals:         1       0       0       0       0
  7566 ;;      Temps:          1       0       0       0       0
  7567 ;;      Totals:         2       0       0       0       0
  7568 ;;Total ram usage:        2 bytes
  7569 ;; Hardware stack levels used:    1
  7570 ;; This function calls:
  7571 ;;		Nothing
  7572 ;; This function is called by:
  7573 ;;		_tc_int
  7574 ;; This function uses a non-reentrant model
  7575 ;;
  7576                           psect	text843
  7577                           	file	"C:\Users\Seba\Documents\Projekt\Bustel\Bustel_Project\Bustel Card v10.0 code v1.7
                                 .1\Main Card V10.0.c"
  7578                           	line	975
  7579                           	global	__size_ofi1_OperationMode
  7580  000A                     	__size_ofi1_OperationMode	equ	__end_ofi1_OperationMode-i1_OperationMode
  7581                           	
  7582  0BCD                     i1_OperationMode:	
  7583 ;; hardware stack exceeded
  7584                           	opt	stack 0
  7585                           ; Regs used in i1_OperationMode: [wreg+status,2]
  7586                           	line	977
  7587                           	
  7588  0BCD                     i1l4344:	
  7589                           ;Main Card V10.0.c: 976: unsigned char bracketStatus;
  7590                           ;Main Card V10.0.c: 977: bracketStatus = ((~PORTB) & 0b00000111) ;
  7591  0BCD  1283               	bcf	status, 5	;RP0=0, select bank0
  7592  0BCE  1303               	bcf	status, 6	;RP1=0, select bank0
  7593  0BCF  0906               	comf	(6),w	;volatile
  7594  0BD0  3907               	andlw	07h
  7595  0BD1  00F0               	movwf	(??i1_OperationMode+0)+0
  7596  0BD2  0870               	movf	(??i1_OperationMode+0)+0,w
  7597  0BD3  00F1               	movwf	(i1OperationMode@bracketStatus)
  7598                           	line	979
  7599                           	
  7600  0BD4                     i1l4346:	
  7601                           ;Main Card V10.0.c: 979: return bracketStatus;
  7602  0BD4  0871               	movf	(i1OperationMode@bracketStatus),w
  7603  0BD5  2BD6               	goto	i1l1269
  7604                           	
  7605  0BD6                     i1l4348:	
  7606                           	line	980
  7607                           	
  7608  0BD6                     i1l1269:	
  7609  0BD6  0008               	return
  7610                           	opt stack 0
  7611                           GLOBAL	__end_ofi1_OperationMode
  7612  0BD7                     	__end_ofi1_OperationMode:
  7613 ;; =============== function i1_OperationMode ends ============
  7614                           
  7615                           	signat	i1_OperationMode,89
  7616                           	global	_TimerCounter
  7617                           psect	text844,local,class=CODE,delta=2
  7618                           global __ptext844
  7619  0E78                     __ptext844:
  7620                           
  7621 ;; *************** function _TimerCounter *****************
  7622 ;; Defined at:
  7623 ;;		line 490 in file "C:\Users\Seba\Documents\Projekt\Bustel\Bustel_Project\Bustel Card v10.0 code v1.7.1\Main Card V10.
       0.c"
  7624 ;; Parameters:    Size  Location     Type
  7625 ;;		None
  7626 ;; Auto vars:     Size  Location     Type
  7627 ;;  i               2    3[COMMON] int 
  7628 ;; Return value:  Size  Location     Type
  7629 ;;		None               void
  7630 ;; Registers used:
  7631 ;;		wreg, fsr0l, fsr0h, status,2, status,0, btemp+1
  7632 ;; Tracked objects:
  7633 ;;		On entry : 0/0
  7634 ;;		On exit  : 0/0
  7635 ;;		Unchanged: 0/0
  7636 ;; Data sizes:     COMMON   BANK0   BANK1   BANK3   BANK2
  7637 ;;      Params:         0       0       0       0       0
  7638 ;;      Locals:         2       0       0       0       0
  7639 ;;      Temps:          3       0       0       0       0
  7640 ;;      Totals:         5       0       0       0       0
  7641 ;;Total ram usage:        5 bytes
  7642 ;; Hardware stack levels used:    1
  7643 ;; This function calls:
  7644 ;;		Nothing
  7645 ;; This function is called by:
  7646 ;;		_tc_int
  7647 ;; This function uses a non-reentrant model
  7648 ;;
  7649                           psect	text844
  7650                           	file	"C:\Users\Seba\Documents\Projekt\Bustel\Bustel_Project\Bustel Card v10.0 code v1.7
                                 .1\Main Card V10.0.c"
  7651                           	line	490
  7652                           	global	__size_of_TimerCounter
  7653  0058                     	__size_of_TimerCounter	equ	__end_of_TimerCounter-_TimerCounter
  7654                           	
  7655  0E78                     _TimerCounter:	
  7656 ;; hardware stack exceeded
  7657                           	opt	stack 0
  7658                           ; Regs used in _TimerCounter: [wreg-fsr0h+status,2+status,0+btemp+1]
  7659                           	line	491
  7660                           	
  7661  0E78                     i1l4222:	
  7662                           ;Main Card V10.0.c: 491: for (int i = 0; i < 5; i++)
  7663  0E78  01F3               	clrf	(TimerCounter@i)
  7664  0E79  01F4               	clrf	(TimerCounter@i+1)
  7665                           	
  7666  0E7A                     i1l4224:	
  7667  0E7A  0874               	movf	(TimerCounter@i+1),w
  7668  0E7B  3A80               	xorlw	80h
  7669  0E7C  00FF               	movwf	btemp+1
  7670  0E7D  3080               	movlw	(high(05h))^80h
  7671  0E7E  027F               	subwf	btemp+1,w
  7672  0E7F  1D03               	skipz
  7673  0E80  2E83               	goto	u313_25
  7674  0E81  3005               	movlw	low(05h)
  7675  0E82  0273               	subwf	(TimerCounter@i),w
  7676  0E83                     u313_25:
  7677                           
  7678  0E83  1C03               	skipc
  7679  0E84  2E86               	goto	u313_21
  7680  0E85  2E87               	goto	u313_20
  7681  0E86                     u313_21:
  7682  0E86  2E89               	goto	i1l4228
  7683  0E87                     u313_20:
  7684  0E87  2ECF               	goto	i1l1177
  7685                           	
  7686  0E88                     i1l4226:	
  7687  0E88  2ECF               	goto	i1l1177
  7688                           	line	492
  7689                           	
  7690  0E89                     i1l1173:	
  7691                           	line	493
  7692                           	
  7693  0E89                     i1l4228:	
  7694                           ;Main Card V10.0.c: 492: {
  7695                           ;Main Card V10.0.c: 493: if(intClockTimer[i]>0)
  7696  0E89  0873               	movf	(TimerCounter@i),w
  7697  0E8A  00F0               	movwf	(??_TimerCounter+0)+0
  7698  0E8B  0770               	addwf	(??_TimerCounter+0)+0,w
  7699  0E8C  3EA0               	addlw	_intClockTimer&0ffh
  7700  0E8D  0084               	movwf	fsr0
  7701  0E8E  1383               	bcf	status, 7	;select IRP bank1
  7702  0E8F  0800               	movf	indf,w
  7703  0E90  00F1               	movwf	(??_TimerCounter+1)+0+0
  7704  0E91  0A84               	incf	fsr0,f
  7705  0E92  0800               	movf	indf,w
  7706  0E93  00F2               	movwf	(??_TimerCounter+1)+0+1
  7707  0E94  0872               	movf	1+(??_TimerCounter+1)+0,w
  7708  0E95  3A80               	xorlw	80h
  7709  0E96  00FF               	movwf	btemp+1
  7710  0E97  3080               	movlw	(high(01h))^80h
  7711  0E98  027F               	subwf	btemp+1,w
  7712  0E99  1D03               	skipz
  7713  0E9A  2E9D               	goto	u314_25
  7714  0E9B  3001               	movlw	low(01h)
  7715  0E9C  0271               	subwf	0+(??_TimerCounter+1)+0,w
  7716  0E9D                     u314_25:
  7717                           
  7718  0E9D  1C03               	skipc
  7719  0E9E  2EA0               	goto	u314_21
  7720  0E9F  2EA1               	goto	u314_20
  7721  0EA0                     u314_21:
  7722  0EA0  2EB3               	goto	i1l4232
  7723  0EA1                     u314_20:
  7724                           	line	494
  7725                           	
  7726  0EA1                     i1l4230:	
  7727                           ;Main Card V10.0.c: 494: intClockTimer[i]--;
  7728  0EA1  0873               	movf	(TimerCounter@i),w
  7729  0EA2  00F0               	movwf	(??_TimerCounter+0)+0
  7730  0EA3  0770               	addwf	(??_TimerCounter+0)+0,w
  7731  0EA4  3EA0               	addlw	_intClockTimer&0ffh
  7732  0EA5  0084               	movwf	fsr0
  7733  0EA6  30FF               	movlw	low(-1)
  7734  0EA7  1383               	bcf	status, 7	;select IRP bank1
  7735  0EA8  0780               	addwf	indf,f
  7736  0EA9  0F84               	incfsz	fsr0,f
  7737  0EAA  0800               	movf	indf,w
  7738  0EAB  1803               	skipnc
  7739  0EAC  0A00               	incf	indf,w
  7740  0EAD  00FF               	movwf	btemp+1
  7741  0EAE  30FF               	movlw	high(-1)
  7742  0EAF  077F               	addwf	btemp+1,w
  7743  0EB0  0080               	movwf	indf
  7744  0EB1  0384               	decf	fsr0,f
  7745  0EB2  2EBB               	goto	i1l4234
  7746                           	line	495
  7747                           	
  7748  0EB3                     i1l1175:	
  7749                           	line	496
  7750                           	
  7751  0EB3                     i1l4232:	
  7752                           ;Main Card V10.0.c: 495: else
  7753                           ;Main Card V10.0.c: 496: bTimerComplete[i] = 1;
  7754  0EB3  0873               	movf	(TimerCounter@i),w
  7755  0EB4  3EAA               	addlw	_bTimerComplete&0ffh
  7756  0EB5  0084               	movwf	fsr0
  7757  0EB6  1383               	bcf	status, 7	;select IRP bank1
  7758  0EB7  0180               	clrf	indf
  7759  0EB8  1403               	bsf	status,0
  7760  0EB9  0D80               	rlf	indf,f
  7761  0EBA  2EBB               	goto	i1l4234
  7762                           	
  7763  0EBB                     i1l1176:	
  7764                           	line	491
  7765                           	
  7766  0EBB                     i1l4234:	
  7767  0EBB  3001               	movlw	low(01h)
  7768  0EBC  07F3               	addwf	(TimerCounter@i),f
  7769  0EBD  1803               	skipnc
  7770  0EBE  0AF4               	incf	(TimerCounter@i+1),f
  7771  0EBF  3000               	movlw	high(01h)
  7772  0EC0  07F4               	addwf	(TimerCounter@i+1),f
  7773                           	
  7774  0EC1                     i1l4236:	
  7775  0EC1  0874               	movf	(TimerCounter@i+1),w
  7776  0EC2  3A80               	xorlw	80h
  7777  0EC3  00FF               	movwf	btemp+1
  7778  0EC4  3080               	movlw	(high(05h))^80h
  7779  0EC5  027F               	subwf	btemp+1,w
  7780  0EC6  1D03               	skipz
  7781  0EC7  2ECA               	goto	u315_25
  7782  0EC8  3005               	movlw	low(05h)
  7783  0EC9  0273               	subwf	(TimerCounter@i),w
  7784  0ECA                     u315_25:
  7785                           
  7786  0ECA  1C03               	skipc
  7787  0ECB  2ECD               	goto	u315_21
  7788  0ECC  2ECE               	goto	u315_20
  7789  0ECD                     u315_21:
  7790  0ECD  2E89               	goto	i1l4228
  7791  0ECE                     u315_20:
  7792  0ECE  2ECF               	goto	i1l1177
  7793                           	
  7794  0ECF                     i1l1174:	
  7795                           	line	498
  7796                           	
  7797  0ECF                     i1l1177:	
  7798  0ECF  0008               	return
  7799                           	opt stack 0
  7800                           GLOBAL	__end_of_TimerCounter
  7801  0ED0                     	__end_of_TimerCounter:
  7802 ;; =============== function _TimerCounter ends ============
  7803                           
  7804                           	signat	_TimerCounter,88
  7805                           psect	text845,local,class=CODE,delta=2
  7806                           global __ptext845
  7807  0000                     __ptext845:
  7808                           	global	btemp
  7809  007E                     	btemp set 07Eh
  7810                           
  7811                           	DABS	1,126,2	;btemp
  7812                           	global	wtemp0
  7813  007E                     	wtemp0 set btemp


HI-TECH Software PICC Macro Assembler V9.83 build 10920 
Symbol Table                                                                                   Sun Jan 31 10:44:40 2016

                               pc 0002        __size_of_TransiverReadFIFO 0080             _bTransiverModeReceive 006B  
                     _SSPSTATbits 0094                                _RD 0C60                                _WR 0C61  
                              fsr 0004                               _GIE 005F             __end_of_DarknessCheck 0D61  
                             fsr0 0004                               indf 0000               __end_of_FindChannel 02FC  
  __end_of_TransmittedDataHandler 01F6                   ??_timerFunction 0024                              l1100 01F0  
                            l1101 0142                              l1110 018D                              l1102 0135  
                            l1111 0191                              l1103 0141                              l1104 01EF  
                            l1112 01ED                              l1120 01F5                              l1201 03E4  
                            l1113 01B0                              l1105 0172                              l1210 02FB  
                            l1202 03EA                              l1130 0591                              l1114 01AF  
                            l1106 0165                              l1211 02E3                              l1131 0589  
                            l1123 0524                              l1115 01EC                              l1107 0171  
                            l1220 0FDA                              l1140 0CCA                              l1132 0591  
                            l1124 0517                              l1108 01EE                              l1116 01C9  
                            l1060 06DA                              l1221 0FFF                              l1141 0CDB  
                            l1205 021D                              l1133 0597                              l1125 0523  
                            l1117 01C8                              l1109 0192                              l1061 06EA  
                            l1230 0CB6                              l1214 0FE9                              l1142 0CDD  
                            l1206 02F9                              l1134 05AB                              l1126 0532  
                            l1118 01EB                              l1062 06FA                              l1215 0FA0  
                            l1143 0CDD                              l1207 02D3                              l1127 0574  
                            l1119 01EA                              l1063 070A                              l1224 0DC1  
                            l1216 0FFC                              l1208 02AC                              l1072 0F6F  
                            l1128 0558                              l1080 0782                              l1064 071A  
                            l1233 0C97                              l1225 0DA0                              l1217 0FAD  
                            l1209 02C5                              l1137 0BC4                              l1073 0F62  
                            l1129 0588                              l1081 0798                              l1065 0727  
                            l1170 0C33                              l2210 0E20                              l1226 0DD0  
                            l1218 0FBC                              l1162 0EE3                              l1146 0BFC  
                            l1074 0F6E                              l1154 0C44                              l1090 01F5  
                            l1082 0783                              l1066 0737                              l1227 0DD0  
                            l1219 0FCB                              l1163 0F02                              l1147 0BFE  
                            l1075 0F7D                              l1155 0C49                              l1091 006F  
                            l1067 0738                              l1059 06CA                              l1180 0E41  
                            l2204 0E12                              l1236 0C20                              l1164 0F28  
                            l1148 0BFE                              l1076 0F8F                              l1092 01F4  
                            l1084 07A5                              l1068 0739                              l1181 0E41  
                            l2205 0DD5                              l1165 0F25                              l1093 0099  
                            l1085 07A6                              l1069 0739                              l1182 0E47  
                            l2206 0DF8                              l1262 0D48                              l1166 0F27  
                            l1158 0C5A                              l1094 01F3                              l1086 07BB  
                            l1183 0E77                              l2207 0E22                              l1239 0BEE  
                            l1263 0D4D                              l1167 0F28                              l1159 0C5F  
                            l1095 00C3                              l1079 0767                              l1192 0C0A  
                            l1256 0D29                              l1264 0D5E                              l1096 01F2  
                            l1193 0C0A                              l2209 0E1F                              l1257 0D29  
                            l1265 0D5F                              l1097 00E9                              l1089 0042  
                            l1194 0C0E                              l1186 0CF6                              l1258 0D2F  
                            l1266 0D60                              l1098 01F1                              l1195 0C0F  
                            l1187 0CE3                              l1259 0D32                              l1099 010F  
                            l1188 0D05                              l1269 0BE0                              l1189 0D05  
                            l1198 07FE                              l4200 0E6A                              l4210 0E75  
                            l4202 0E6D                              l4204 0E6E                              l4140 0E23  
                            l4212 0BD7                              l4220 0C33                              l4206 0E6F  
                            l4150 0E36                              l4142 0E29                              l4214 0BDE  
                            l4310 0D7A                              l2551 0C63                              l4208 0E73  
                            l4160 0E3F                              l4152 0E39                              l4144 0E2E  
                            l4216 0BE0                              l4240 0C06                              l4312 0D98  
                            l2560 0D98                              l4320 05C9                              l2552 0C6F  
                            l4400 0CA9                              l2553 0C7B                              l4170 0E4E  
                            l4162 0E47                              l4154 0E3A                              l4146 0E32  
                            l4218 0C21                              l4306 0D64                              l4330 05FF  
                            l4322 05E1                              l4314 05AF                              l2554 0C79  
                            l4402 0CB3                              l4410 0C13                              l2563 05EB  
                            l4180 0E59                              l4172 0E51                              l4164 0E49  
                            l4156 0E3B                              l4148 0E34                              l4308 0D6A  
                            l4324 05E2                              l4316 05B0                              l2564 05B0  
                            l4340 0C79                              l4332 0C63                              l4404 0CB4  
                            l4412 0C1D                              l4420 0D12                              l4500 02A1  
                            l2557 0D6A                              l2565 05E2                              l4190 0E63  
                            l4182 0E5A                              l4174 0E54                              l4166 0E4A  
                            l4158 0E3C                              l4238 0C02                              l2558 0D69  
                            l4318 05B8                              l4326 05EB                              l4342 0C7B  
                            l4334 0C6C                              l4350 0C7F                              l4406 0CB6  
                            l4414 0C1E                              l4430 0D32                              l4422 0D13  
                            l4510 02C4                              l4502 02A7                              l2559 0D7A  
                            l2567 05C9                              l4192 0E65                              l4184 0E5D  
                            l4176 0E57                              l4168 0E4D                              l4328 05FC  
                            l2568 05FF                              l4336 0C6E                              l4352 0C80  
                            l4360 0DD4                              l4416 0C20                              l4408 0C10  
                            l4424 0D1C                              l4440 0DC1                              l4432 0D99  
                            l4512 02C5                              l4504 02AC                              l4520 02F9  
                            l4600 051D                              l2569 05FC                              l4194 0E67  
                            l4186 0E5E                              l4178 0E58                              l4338 0C6F  
                            l4354 0C86                              l4362 0DD5                              l4370 0E12  
                            l4426 0D1F                              l4418 0D09                              l4434 0DA3  
                            l4450 0FBC                              l4442 0F93                              l4522 02FB  
                            l4506 02B9                              l4514 02D3                              l4530 0EE3  
                            l4610 0545                              l4602 0524                              l4196 0E68  
                            l4188 0E5F                              l4356 0C8C                              l4372 0E16  
                            l4364 0DF5                              l4380 0CE3                              l4428 0D30  
                            l4436 0DAC                              l4452 0FCB                              l4444 0F94  
                            l4460 0D33                              l4516 02E3                              l4508 02BC  
                            l4532 0EEB                              l4540 0F02                              l4524 0ED0  
                            l4620 0574                              l4612 054B                              l4604 0532  
                            l4700 0135                              l4198 0E69                              l4358 0C94  
                            l4374 0E20                              l4366 0DF7                              l4382 0BE4  
                            l4390 07FA                              l4438 0DB8                              l4454 0FDA  
                            l4446 0FA0                              l4470 0D5A                              l4462 0D36  
                            l4518 02EB                              l4542 0F08                              l4534 0EEF  
                            l4526 0ED9                              l4550 02FC                              l4630 05A2  
                            l4622 0589                              l4614 0551                              l4606 0538  
                            l4710 0172                              l4702 0142                              l4376 0E22  
                            l4368 0DF8                              l4384 0BE5                              l4392 07FE  
                            l4456 0FE8                              l4448 0FAD                              l4464 0D3C  
                            l4480 0CD3                              l4472 0CB7                              l4544 0F0D  
                            l4536 0EF3                              l4528 0EDD                              l4552 03CE  
                            l4560 0BEF                              l4624 0590                              l4616 0558  
                            l4608 053F                              l4632 0C34                              l4640 0C50  
                            l4720 01A3                              l4712 0183                              l4704 0153  
                            l4800 072D                              l4378 0CDE                              l4386 0BEB  
                            l4394 0C9B                              l4458 0FE9                              l4466 0D48  
                            l4482 0CD9                              l4474 0CC0                              l4490 020A  
                            l4546 0F13                              l4538 0EF4                              l4554 03D8  
                            l4562 0BF4                              l4570 0F49                              l4626 0597  
                            l4618 056B                              l4634 0C3A                              l4642 0C5A  
                            l4730 01C9                              l4722 01AA                              l4714 018B  
                            l4706 015B                              l4650 0036                              l4802 0731  
                            l4388 07F4                              l4396 0C9C                              l4468 0D4D  
                            l4476 0CC4                              l4492 020E                              l4484 01F6  
                            l4548 0F17                              l4556 03E4                              l4564 0BFA  
                            l4580 0F7D                              l4572 0F5B                              l4628 059C  
                            l4636 0C44                              l4732 01DA                              l4724 01B0  
                            l4716 018D                              l4708 0165                              l4660 0063  
                            l4652 0038                              l4644 0015                              l4740 0754  
                            l4398 0CA3                              l4478 0CCA                              l4494 021C  
                            l4486 01FA                              l4558 0BBF                              l4582 0F83  
                            l4574 0F62                              l4566 0F29                              l4590 04ED  
                            l4638 0C4A                              l4734 01E0                              l4726 01C1  
                            l4718 0192                              l4670 008C                              l4662 0065  
                            l4646 0026                              l4654 0042                              l4750 076E  
                            l4742 0756       __size_of_TransiverToReceive 0067                              l4496 021D  
                            l4488 01FD                              l4584 0F8A                              l4576 0F68  
                            l4568 0F3E                              l4592 04F3                              l4728 01C6  
                            l4680 00C3                              l4672 0099                              l4656 0053  
                            l4664 006F                              l4648 0030                              l4760 079E  
                            l4752 0774                              l4744 0758                              l4736 073C  
                            l4498 028F                              l4578 0F6F                              l4594 04FE  
                            l4586 04DA                              l4690 0105                              l4682 00D4  
                            l4674 00AA                              l4666 0080                              l4658 005D  
                            l4762 07A6                              l4754 0783                              l4746 0766  
                            l4738 0751                              l4770 06B6                              l4596 0510  
                            l4588 04E9                              l4692 010F                              l4684 00DF  
                            l4676 00AD                              l4668 0083                              l4764 07B0  
                            l4756 0791                              l4748 0767                              l4780 06E4  
                            l4772 06C4                              l4598 0517                              l4694 0120  
                            l4686 00E9                              l4678 00B6                              l4766 07B6  
                            l4758 0798                              l4790 070A                              l4782 06EA  
                            l4774 06CA                              l4696 0125                              l4688 00FA  
                            l4792 0714                              l4784 06F4                              l4776 06D4  
                            l4768 06B1                              l4698 012B                              l4794 071A  
                            l4786 06FA                              l4778 06DA                              l4796 0721  
                            l4788 0704                              l4798 0727                              STR_1 0664  
                            STR_2 066C                              STR_3 0691                              STR_4 0683  
                            STR_5 0674                              STR_6 068A                              STR_7 0653  
                            STR_8 0645                              STR_9 0637                              u3120 0E46  
                            u4000 072D                              u3121 0E45                              u4001 072C  
                            u4010 0731                              u3160 0C0E                              u3320 0D79  
                            u3400 0E1E                              u3161 0C0D                              u3321 0D78  
                            u3401 0E1D                              u3330 05B8                              u3410 0D04  
                            u3331 05B7                              u3411 0D03                              u4107 0203  
                            u4027 06BE                              u3340 05C8                              u3420 0D2F  
                            u3500 021B                              u3341 05C7                              u3421 0D2E  
                            u4117 02CD                              u3501 021A                              u4037 07AB  
                            u3350 05FB                              u3430 0DCF                              u3510 02B9  
                            u3351 05FA                              u3415 0D00                              u4127 0CE9  
                            u3431 0DCE                              u3511 02B8                              u4047 04F9  
                            u3360 0C6C                              u3440 0D3C                              u3520 02E2  
                            u3600 0F13                              u3361 0C6B                              u3441 0D3B  
                            u3521 02E1                              u3505 0217                              u4057 053C  
                            u3370 0C78                              u3450 0D5A                              u3530 02F8  
                            u3610 0F17                              u3355 05F7                              u3371 0C77  
                            u3435 0DCB                              u3451 0D59                              u3531 02F7  
                            u3611 0F16                              u4067 059A                              u3380 0DF5  
                            u3460 0CC0                              u3540 0ED9                              u3620 03D8  
                            u3700 0596                              u3381 0DF4                              u3461 0CBF  
                            u3525 02DE                              u3541 0ED8                              u3621 03D7  
                            u4077 05A6                              u3701 0595                              u3390 0E16  
                            u3470 0CC4                              u3550 0EDD                              u3630 0BFA  
                            u3710 0C3A                              u3471 0CC3                              u3535 02F4  
                            u3551 0EDC                              u3631 0BF9                              u4087 0F44  
                            u3711 0C39                              u3480 0CD3                              u3560 0EEB  
                            u3640 0F68                              u3720 0C50                              u3800 00FA  
                            u3481 0CD2                              u3561 0EEA                              u4097 0F87  
                            u3721 0C4F                              u3801 00F9                              u3490 0CD9  
                            u3570 0EEF                              u3650 0F7C                              u3810 0120  
                            u3730 0026                              u3491 0CD8                              u3571 0EEE  
                            u3651 0F7B                              u3811 011F                              u3731 0025  
                            u3580 0EF3                              u3660 051D                              u3820 012B  
                            u3740 0030                              u3900 0765                              u3581 0EF2  
                            u3741 002F                              u3901 0764                              u3590 0F08  
                            u3670 0531                              u3830 0153                              u3750 0053  
                            u3910 0781                              u3671 0530                              u3831 0152  
                            u3751 0052                              u3911 0780                              u3680 0587  
                            u3840 015B                              u3760 005D                              u3920 079E  
                            _RBIF 0058                              u3681 0586                              u3841 015A  
                            u3761 005C                              u3921 079D                              u3905 0761  
                            u3690 058F                              u3850 0183                              u3770 0080  
                            u3930 07A4                              u3851 0182                              u3771 007F  
                            u3915 077D                              u3860 018B                              u3780 00AA  
                            u3940 06D4                              u3861 018A                              u3781 00A9  
                            u3941 06D3                              u3870 01A3                              u3790 00D4  
                            u3950 06E4                              u3871 01A2                              u3791 00D3  
                            u3951 06E3                              u3880 01C1                              u3960 06F4  
                            u3881 01C0                              u3961 06F3                              u3890 01DA  
                            u3970 0704                              u3891 01D9                              u3971 0703  
                            u3980 0714                              u3981 0713                              u3990 0721  
                            u3991 0720                              _WREN 0C62                              _main 06B1  
                            _init 0E23                              btemp 007E                              start 0012  
                 __end_of_DelayDs 0D06                  TransmittString@i 0039  __size_of_LightWithSensController 0059  
                 __end_of_ReadSPI 07FF                             ?_main 0070                             ?_init 0070  
                           _EEADR 010D                             STR_10 067C                             STR_11 06AD  
                           STR_12 06A9                             STR_13 065C                             STR_14 069E  
                           STR_15 0698                             STR_16 06A4                             STR_17 0664  
                           STR_18 066C                             _CARRY 0018                             _ANSEL 0188  
           __end_of_OperationMode 0BE1                             _T1CON 0010                             _TMR1H 000F  
                           _TMR1L 000E                             _PORTA 0005                             _PORTB 0006  
                           _PORTC 0007                             _TRISA 0085                             _TRISB 0086  
                           _TRISC 0087                             _SSPIE 0463                             _Blink 0D99  
                           _bDark 006A                       _AnalogValue 0D06                             pclath 000A  
                 ??_TransiverInit 0035                             status 0003                     _intBlinkCycle 005F  
                           wtemp0 007E                    WriteSPI@buffer 0021                   __end_of_strncmp 0600  
                   _intClockTimer 00A0                 _intNumberOfBlinks 006C                      __end_of_main 073C  
                    __end_of_init 0E78                  __end_of_ReadFIFO 0C21                     ReadFIFO@value 0024  
                     _FindChannel 01F6                     ??_RegisterSet 0024                            ??_main 005A  
                          ??_init 0020                            ?_Blink 0026                            _ADRESH 001E  
                          _EEDATA 010C                            _EECON1 018C                            _EECON2 018D  
                          _ANSELH 0189                  __end_of_WriteSPI 0C10                            i1l1250 0499  
                          i1l1242 040A                            i1l1243 04CB                            i1l1251 04B3  
                          i1l1252 04C7                            i1l1244 044B                            i1l1173 0E89  
                          i1l1253 04CF                            i1l1245 0443                            i1l1174 0ECF  
                          i1l1246 044A                            i1l1175 0EB3                            i1l1247 0449  
                          i1l1176 0EBB                            i1l1248 0474                            i1l1177 0ECF  
                          i1l1249 0473                            i1l1269 0BD6                            i1l4300 04CC  
                          i1l4230 0EA1                            i1l4222 0E78                            i1l4302 04CD  
                          i1l4232 0EB3                            i1l4224 0E7A                            i1l4304 04CF  
                          i1l4234 0EBB                            i1l4226 0E88                            i1l4250 0407  
                          i1l4242 03EB                            i1l4236 0EC1                            i1l4228 0E89  
                          i1l4260 0435                            i1l4244 03EF                            i1l4252 040A  
                          i1l4270 0454                            i1l4262 043B                            i1l4254 0410  
                          i1l4246 03F5                            i1l4344 0BCD                            i1l4280 0489  
                          i1l4272 046D                            i1l4264 0441                            i1l4256 0411  
                          i1l4248 0401                            i1l4346 0BD4                            i1l4290 04AC  
                          i1l4282 048D                            i1l4274 0471                            i1l4266 0447  
                          i1l4258 041C                            i1l4348 0BD6                            i1l4292 04B3  
                          i1l4284 0493                            i1l4276 0474                            i1l4268 044B  
                          i1l4294 04C2                            i1l4286 0499                            i1l4278 047C  
                          i1l4296 04C7                            i1l4288 04A8                            i1l4298 04CB  
                          u320_20 0410                            u320_21 040F                            u313_20 0E87  
                          u321_20 041C                            u313_21 0E86                            u321_21 041B  
                          u313_25 0E83                            u314_20 0EA1                            u330_20 04A8  
                          u314_21 0EA0                            u330_21 04A7                            u314_25 0E9D  
                          u330_25 04A4                            u322_25 0422                            u315_20 0ECE  
                          u331_20 04C2                            u323_20 0435                            u315_21 0ECD  
                          u331_21 04C1                            u323_21 0434                            u315_25 0ECA  
                          u331_25 04BE                            u323_25 0431                            u324_20 0441  
                          u324_21 0440                            u325_20 0447                            u317_20 03EF  
                          u325_21 0446                            u317_21 03EE                         ??_DelayDs 0022  
                          u326_20 0454                            u318_20 03F5                            u326_21 0453  
                          u318_21 03F4                            u319_20 0401                            u319_21 0400  
                          u327_25 045A                            u328_20 046D                            u328_21 046C  
                          u328_25 0469                            Blink@i 0029                            u329_20 0489  
                          u329_21 0488                            Blink@n 0026                            u329_25 0485  
                          _TMR1IF 0060                            _TMR1ON 0080      i1OperationMode@bracketStatus 0071  
                          _SSPBUF 0013                         ??_ReadSPI 0023                            _Mode_0 0BBF  
                          _Mode_1 0CB7                            _Mode_2 0BEF                            _Mode_4 0C34  
                          _Mode_5 0C4A                __size_of_SetRFMode 0070                            _tc_int 03EB  
                          _strchr 0C60                            clrloop 0BC6                            _strlen 0D61  
                          _strstr 0DD1                            saved_w 007E               __end_of_RegisterSet 0C98  
                   ?_RegisterRead 0070                RegisterRead@adress 002A       TransmittedDataHandler@slask 003C  
                       ??_strncmp 002D                __size_of_WriteFIFO 000E           _LightWithSensController 0ED0  
                   _bChannelFound 0069                     __end_of_Blink 0DD1                    __pcstackCOMMON 0070  
                    __pidataBANK0 0BBB                      _channelFound 005D                    _OPTION_REGbits 0081  
                         ??_Blink 0028                 __end_of_SetRFMode 1000                    ??_RegisterRead 0027  
                      __pbssBANK0 005D                        __pbssBANK1 00A0                        __pbssBANK3 0190  
        __size_ofi1_OperationMode 000A                         ?_ReadFIFO 0070        timerFunction@intSetSeconds 0022  
              AnalogValue@channel 0027                           ?_Mode_0 0070                           ?_Mode_1 0070  
                         ?_Mode_2 0070                           ?_Mode_4 0070                           ?_Mode_5 0070  
        __size_of_TransmittString 00D2                        __pmaintext 06B1                        __pintentry 0004  
                         ?_tc_int 0070                         ?_WriteSPI 0070                 __end_of_WriteFIFO 0BEF  
                         ?_strchr 0020                           ?_strlen 0020                       _RegisterSet 0C7C  
                         ?_strstr 0030                     ?_TimerCounter 0070        __end_of_TransiverToReceive 0F90  
           __end_of_timerFunction 0C34                      ?_AnalogValue 0070                        ??_ReadFIFO 0023  
                         _DelayDs 0CDE         ??_LightWithSensController 002A                           _ReadSPI 07F4  
          __size_of_DarknessCheck 002E                   __size_of_Mode_0 0006                   __size_of_Mode_1 0027  
                 __size_of_Mode_2 0010                   __size_of_Mode_4 0016                   __size_of_Mode_5 0016  
      OperationMode@bracketStatus 0021                      ?_FindChannel 0070                         _ANSELbits 0188  
                      ??_WriteSPI 0020                   __size_of_tc_int 00EF                   __size_of_strchr 001C  
                 __size_of_strlen 0038                         _T1CONbits 0010                   __size_of_strstr 0052  
                  ??_TimerCounter 0070                           _strncmp 05AC              end_of_initialization 07F0  
           __end_of_TransiverInit 03EB            __size_of_OperationMode 000A                 ??i1_OperationMode 0070  
                WriteSPI@databyte 0022              __end_of_RegisterRead 0CB7                     WriteFIFO@Data 0023  
        ??_TransmittedDataHandler 003B                           strlen@s 0028                   _intBlinkCounter 007C  
               ??_TransmittString 0037                         _PORTAbits 0005                         _PORTBbits 0006  
                       _PORTCbits 0007                     _DarknessCheck 0D33                    __end_of_Mode_0 0BC5  
                  __end_of_Mode_1 0CDE                    __end_of_Mode_2 0BFF                    __end_of_Mode_4 0C4A  
                  __end_of_Mode_5 0C60                    __end_of_tc_int 04DA                    ?_DarknessCheck 0070  
                   _OperationMode 0BD7                    __end_of_strchr 0C7C                    __end_of_strlen 0D99  
                  __end_of_strstr 0E23               start_initialization 07BC             _intDarkCheckIntervall 0061  
      DarknessCheck@darknessValue 0029                         _SetRFMode 0F90              __size_of_AnalogValue 002D  
               __size_of_ReadFIFO 0011                          ??_Mode_0 002A                          ??_Mode_1 002A  
                        ??_Mode_2 002A                          ??_Mode_4 003B                          ??_Mode_5 003B  
            __end_of_TimerCounter 0ED0                     TimerCounter@i 0073                       __pdataBANK0 006C  
                        ??_tc_int 0075   __size_of_TransmittedDataHandler 01E1                      ?_RegisterSet 0023  
                        ??_strchr 0022                          ??_strlen 0022                          ??_strstr 0031  
                  ?_OperationMode 0070              __size_of_FindChannel 0106         TransmittString@dataString 0035  
               RegisterRead@value 0029                 __size_of_WriteSPI 0011                       __pbssCOMMON 007C  
                       _WriteFIFO 0BE1                     __pcstackBANK0 0020                      _ReceivedData 0190  
          SetRFMode@mcparam0_read 002D                        ?_SetRFMode 0070                          ?_DelayDs 0020  
               RegisterSet@adress 0026                          ?_ReadSPI 0070             __size_of_RegisterRead 001F  
              _TransiverToReceive 0F29                         __ptext820 02FC                         __ptext812 073C  
                       __ptext821 0ED0                         __ptext813 0015                         __ptext830 07F4  
                       __ptext822 01F6                         __ptext814 0C4A                         __ptext831 0BE1  
                       __ptext823 0CB7                         __ptext815 0C34                         __ptext840 0BD7  
                       __ptext832 0CDE                         __ptext824 0D33                         __ptext816 04DA  
                       __ptext841 0E23                         __ptext833 0DD1                         __ptext825 0F90  
                       __ptext817 0F29                         __ptext842 03EB                         __ptext834 0C7C  
                       __ptext826 0D99                         __ptext818 0BEF                         __ptext843 0BCD  
                       __ptext835 0C60                         __ptext827 0D06                         __ptext819 0BBF  
                       __ptext844 0E78                         __ptext836 05AC                         __ptext828 0C10  
                       __ptext845 0000                         __ptext837 0D61                         __ptext829 0C98  
                       __ptext838 0BFF                         __ptext839 0C21               ?_TransiverToReceive 0070  
                 ??_DarknessCheck 0028                         __pstrings 0600  TransmittedDataHandler@slask_1866 0044  
TransmittedDataHandler@slask_1877 004C       timerFunction@intTimerNumber 0020                    __size_of_Blink 0038  
                      ?_WriteFIFO 0070                   i1_OperationMode 0BCD              ??_TransiverToReceive 0035  
                    _RegisterRead 0C98                          ?_strncmp 002A            _TransmittedDataHandler 0015  
               interrupt_function 0004                          _IOCBbits 0096                          DelayDs@i 0024  
                    FindChannel@i 0033                          _PIE1bits 008C                   _TransmittString 04DA  
                        _PIR1bits 000C            __size_of_timerFunction 0013                   ??_OperationMode 0020  
                   SetRFMode@mode 002C                        _ADCON0bits 001F                       __stringbase 060F  
                      _ADCON1bits 009F                          _WPUBbits 0095                          _ChannelP 0610  
                        _ChannelR 061D                          _ChannelS 062A             _chManualDarknessValue 006F  
        ?_LightWithSensController 0070                       ??_SetRFMode 002B                          _ReadFIFO 0C10  
           __size_of_TimerCounter 0058                  __size_of_DelayDs 0028                  __size_of_ReadSPI 000B  
                  _bTimerComplete 00AA                  _intMinuteCounter 0065                 _TransiverReadFIFO 073C  
                        _WriteSPI 0BFF                  _intSecondCounter 0067                ?_TransiverReadFIFO 0070  
         __end_ofi1_OperationMode 0BD7            __size_of_TransiverInit 00EF              __size_of_RegisterSet 001C  
                RegisterSet@value 0023                       ??_WriteFIFO 0023                      _TimerCounter 0E78  
             ??_TransiverReadFIFO 0054                     _timerFunction 0C21           __end_of_TransmittString 05AC  
                __size_of_strncmp 0054                     __size_of_main 008B                     __size_of_init 0055  
                      strncmp@len 002B                          clear_ram 0BC5                     _bValueFromPot 006E  
       __end_of_TransiverReadFIFO 07BC                        DelayDs@cnt 0020                    FindChannel@cnt 0031  
 __end_of_LightWithSensController 0F29              _intHalfSecondCounter 0063                        _INTCONbits 000B  
              TransiverReadFIFO@i 0056                TransiverReadFIFO@j 0058                    ?_timerFunction 0020  
                   ??_AnalogValue 0026                 _TransmittedString 00AF                          intlevel1 0000  
                       strchr@chr 0020                         strchr@ptr 0022                     _TransiverInit 02FC  
                       strncmp@s1 002F                         strncmp@s2 002A                         stringcode 060A  
                      _OSCCONbits 008F                     ??_FindChannel 002E                  ?i1_OperationMode 0070  
                        strlen@cp 0029                          stringdir 060A                          stringtab 0600  
         ?_TransmittedDataHandler 0070                          strstr@s1 0034                          strstr@s2 0030  
                ?_TransmittString 0035                    ?_TransiverInit 0070               __end_of_AnalogValue 0D33  
                      _SSPCONbits 0014  
